   1              		.cpu arm7tdmi
   2              		.fpu softvfp
   3              		.eabi_attribute 20, 1
   4              		.eabi_attribute 21, 1
   5              		.eabi_attribute 23, 3
   6              		.eabi_attribute 24, 1
   7              		.eabi_attribute 25, 1
   8              		.eabi_attribute 26, 1
   9              		.eabi_attribute 30, 6
  10              		.eabi_attribute 18, 4
  11              		.file	"reversi8_2019.c"
  21              	.Ltext0:
  22              		.file 1 "../reversi8_2019.c"
 1551              		.align	3
 1554              	tabla_valor:
 1555 0000 08       		.byte	8
 1556 0001 02       		.byte	2
 1557 0002 07       		.byte	7
 1558 0003 03       		.byte	3
 1559 0004 03       		.byte	3
 1560 0005 07       		.byte	7
 1561 0006 02       		.byte	2
 1562 0007 08       		.byte	8
 1563 0008 02       		.byte	2
 1564 0009 01       		.byte	1
 1565 000a 04       		.byte	4
 1566 000b 04       		.byte	4
 1567 000c 04       		.byte	4
 1568 000d 04       		.byte	4
 1569 000e 01       		.byte	1
 1570 000f 02       		.byte	2
 1571 0010 07       		.byte	7
 1572 0011 04       		.byte	4
 1573 0012 06       		.byte	6
 1574 0013 05       		.byte	5
 1575 0014 05       		.byte	5
 1576 0015 06       		.byte	6
 1577 0016 04       		.byte	4
 1578 0017 07       		.byte	7
 1579 0018 03       		.byte	3
 1580 0019 04       		.byte	4
 1581 001a 05       		.byte	5
 1582 001b 00       		.byte	0
 1583 001c 00       		.byte	0
 1584 001d 05       		.byte	5
 1585 001e 04       		.byte	4
 1586 001f 03       		.byte	3
 1587 0020 03       		.byte	3
 1588 0021 04       		.byte	4
 1589 0022 05       		.byte	5
 1590 0023 00       		.byte	0
 1591 0024 00       		.byte	0
 1592 0025 05       		.byte	5
 1593 0026 04       		.byte	4
 1594 0027 03       		.byte	3
 1595 0028 07       		.byte	7
 1596 0029 04       		.byte	4
 1597 002a 06       		.byte	6
 1598 002b 05       		.byte	5
 1599 002c 05       		.byte	5
 1600 002d 06       		.byte	6
 1601 002e 04       		.byte	4
 1602 002f 07       		.byte	7
 1603 0030 02       		.byte	2
 1604 0031 01       		.byte	1
 1605 0032 04       		.byte	4
 1606 0033 04       		.byte	4
 1607 0034 04       		.byte	4
 1608 0035 04       		.byte	4
 1609 0036 01       		.byte	1
 1610 0037 02       		.byte	2
 1611 0038 08       		.byte	8
 1612 0039 02       		.byte	2
 1613 003a 07       		.byte	7
 1614 003b 03       		.byte	3
 1615 003c 03       		.byte	3
 1616 003d 07       		.byte	7
 1617 003e 02       		.byte	2
 1618 003f 08       		.byte	8
 1619              		.align	2
 1622              	vSF:
 1623 0040 FF       		.byte	-1
 1624 0041 FF       		.byte	-1
 1625 0042 00       		.byte	0
 1626 0043 01       		.byte	1
 1627 0044 01       		.byte	1
 1628 0045 01       		.byte	1
 1629 0046 00       		.byte	0
 1630 0047 FF       		.byte	-1
 1631              		.align	2
 1634              	vSC:
 1635 0048 00       		.byte	0
 1636 0049 01       		.byte	1
 1637 004a 01       		.byte	1
 1638 004b 01       		.byte	1
 1639 004c 00       		.byte	0
 1640 004d FF       		.byte	-1
 1641 004e FF       		.byte	-1
 1642 004f FF       		.byte	-1
 1643              		.comm	accesos_patron_volteo,4,4
 1644              		.comm	tiempo_patron_volteo,4,4
 1645              		.comm	tiempo_partida,4,4
 1646              		.comm	boton,4,4
 1647              		.comm	estado_button,1,1
 1648              		.comm	estado_timer_button,1,1
 1649              		.comm	estado_jugada_botones,1,1
 1650              		.comm	fila_botones,4,4
 1651              		.comm	columna_botones,4,4
 1652              		.comm	estado_jugada_pantalla,1,1
 1653              		.comm	fila_pantalla,4,4
 1654              		.comm	columna_pantalla,4,4
 1655              		.comm	transferencia_completa,4,4
 1656              		.comm	tablero,64,8
 1657              		.comm	candidatas,64,8
 1658              		.comm	blancas,4,4
 1659              		.comm	negras,4,4
 1660              		.text
 1661              		.align	2
 1662              		.global	init_table
 1664              	init_table:
 1665              	.LFB0:
   1:../reversi8_2019.c **** 
   2:../reversi8_2019.c **** // Tamaño del tablero
   3:../reversi8_2019.c **** 
   4:../reversi8_2019.c **** // Valores que puede devolver la función patron_volteo())
   5:../reversi8_2019.c **** #include "reversi8_2019.h"
   6:../reversi8_2019.c **** #include "stdint.h"
   7:../reversi8_2019.c **** #include "timer.h"
   8:../reversi8_2019.c **** #include "timer2.h"
   9:../reversi8_2019.c **** #include "boton_antirebotes.h"
  10:../reversi8_2019.c **** #include "debug_stack.h"
  11:../reversi8_2019.c **** #include "controlador_latido.h"
  12:../reversi8_2019.c **** #include "8led.h"
  13:../reversi8_2019.c **** #include "led.h"
  14:../reversi8_2019.c **** #include "44blib.h"
  15:../reversi8_2019.c **** #include "jugada_por_botones.h"
  16:../reversi8_2019.c **** #include "jugada_por_pantalla.h"
  17:../reversi8_2019.c **** #include "pantalla_reversi.h"
  18:../reversi8_2019.c **** 
  19:../reversi8_2019.c **** //////////////////////////////////////////////////////////////////////////////////////
  20:../reversi8_2019.c **** // Variables globales que no deberían serlo
  21:../reversi8_2019.c **** // tablero, fila, columna y ready son varibles que se deberían definir como locales dentro de rever
  22:../reversi8_2019.c **** // Sin embargo, las hemos definido como globales para que sea más fácil visualizar el tablero y las
  23:../reversi8_2019.c **** //////////////////////////////////////////////////////////////////////////////////////
  24:../reversi8_2019.c **** 
  25:../reversi8_2019.c **** ////////////////////////////////////////////////////////////////////
  26:../reversi8_2019.c **** // Tablero sin inicializar
  27:../reversi8_2019.c **** ////////////////////////////////////////////////////////////////////
  28:../reversi8_2019.c **** uint8_t __attribute__ ((aligned (8))) tablero[DIM][DIM];
  29:../reversi8_2019.c **** 
  30:../reversi8_2019.c **** uint8_t __attribute__ ((aligned (8))) candidatas[DIM][DIM];
  31:../reversi8_2019.c **** int blancas, negras; // número de fichas de cada color
  32:../reversi8_2019.c **** 
  33:../reversi8_2019.c **** int existe_jugada();
  34:../reversi8_2019.c **** int partida_terminada(int *ganador);
  35:../reversi8_2019.c **** 
  36:../reversi8_2019.c **** 
  37:../reversi8_2019.c **** ///////////////////////////////////////////////////////////////////////////////////////////////////
  38:../reversi8_2019.c **** // 0 indica CASILLA_VACIA, 1 indica FICHA_BLANCA y 2 indica FICHA_NEGRA
  39:../reversi8_2019.c **** // pone el tablero a cero y luego coloca las fichas centrales.
  40:../reversi8_2019.c **** void __attribute__((optimize("O0"))) init_table(uint8_t tablero[][DIM])
  41:../reversi8_2019.c **** {
 1666              		.loc 1 41 0
 1667              		.cfi_startproc
 1668              		@ Function supports interworking.
 1669              		@ args = 0, pretend = 0, frame = 16
 1670              		@ frame_needed = 1, uses_anonymous_args = 0
 1671 0000 0DC0A0E1 		mov	ip, sp
 1672              	.LCFI0:
 1673              		.cfi_def_cfa_register 12
 1674 0004 00D82DE9 		stmfd	sp!, {fp, ip, lr, pc}
 1675 0008 04B04CE2 		sub	fp, ip, #4
 1676              		.cfi_offset 14, -8
 1677              		.cfi_offset 13, -12
 1678              		.cfi_offset 11, -16
 1679              	.LCFI1:
 1680              		.cfi_def_cfa 11, 4
 1681 000c 10D04DE2 		sub	sp, sp, #16
 1682 0010 18000BE5 		str	r0, [fp, #-24]
  42:../reversi8_2019.c ****     int i, j;
  43:../reversi8_2019.c **** 
  44:../reversi8_2019.c ****     for (i = 0; i < DIM; i++)
 1683              		.loc 1 44 0
 1684 0014 0030A0E3 		mov	r3, #0
 1685 0018 10300BE5 		str	r3, [fp, #-16]
 1686 001c 1B0000EA 		b	.L2
 1687              	.L5:
  45:../reversi8_2019.c ****     {
  46:../reversi8_2019.c ****         for (j = 0; j < DIM; j++)
 1688              		.loc 1 46 0
 1689 0020 0030A0E3 		mov	r3, #0
 1690 0024 14300BE5 		str	r3, [fp, #-20]
 1691 0028 0A0000EA 		b	.L3
 1692              	.L4:
  47:../reversi8_2019.c ****             tablero[i][j] = CASILLA_VACIA;
 1693              		.loc 1 47 0 discriminator 2
 1694 002c 10301BE5 		ldr	r3, [fp, #-16]
 1695 0030 8331A0E1 		mov	r3, r3, asl #3
 1696 0034 18201BE5 		ldr	r2, [fp, #-24]
 1697 0038 032082E0 		add	r2, r2, r3
 1698 003c 14301BE5 		ldr	r3, [fp, #-20]
 1699 0040 033082E0 		add	r3, r2, r3
 1700 0044 0020A0E3 		mov	r2, #0
 1701 0048 0020C3E5 		strb	r2, [r3, #0]
  46:../reversi8_2019.c ****         for (j = 0; j < DIM; j++)
 1702              		.loc 1 46 0 discriminator 2
 1703 004c 14301BE5 		ldr	r3, [fp, #-20]
 1704 0050 013083E2 		add	r3, r3, #1
 1705 0054 14300BE5 		str	r3, [fp, #-20]
 1706              	.L3:
  46:../reversi8_2019.c ****         for (j = 0; j < DIM; j++)
 1707              		.loc 1 46 0 is_stmt 0 discriminator 1
 1708 0058 14301BE5 		ldr	r3, [fp, #-20]
 1709 005c 070053E3 		cmp	r3, #7
 1710 0060 F1FFFFDA 		ble	.L4
  48:../reversi8_2019.c ****         	candidatas[i][j] = NO;
 1711              		.loc 1 48 0 is_stmt 1
 1712 0064 3C219FE5 		ldr	r2, .L6
 1713 0068 10301BE5 		ldr	r3, [fp, #-16]
 1714 006c 8311A0E1 		mov	r1, r3, asl #3
 1715 0070 14301BE5 		ldr	r3, [fp, #-20]
 1716 0074 033081E0 		add	r3, r1, r3
 1717 0078 033082E0 		add	r3, r2, r3
 1718 007c 0020A0E3 		mov	r2, #0
 1719 0080 0020C3E5 		strb	r2, [r3, #0]
  44:../reversi8_2019.c ****     for (i = 0; i < DIM; i++)
 1720              		.loc 1 44 0
 1721 0084 10301BE5 		ldr	r3, [fp, #-16]
 1722 0088 013083E2 		add	r3, r3, #1
 1723 008c 10300BE5 		str	r3, [fp, #-16]
 1724              	.L2:
  44:../reversi8_2019.c ****     for (i = 0; i < DIM; i++)
 1725              		.loc 1 44 0 is_stmt 0 discriminator 1
 1726 0090 10301BE5 		ldr	r3, [fp, #-16]
 1727 0094 070053E3 		cmp	r3, #7
 1728 0098 E0FFFFDA 		ble	.L5
  49:../reversi8_2019.c ****         if(tablero[i][i] == 1111){
  50:../reversi8_2019.c ****         	tablero[i][i] = 0;
  51:../reversi8_2019.c ****         }
  52:../reversi8_2019.c ****     }
  53:../reversi8_2019.c **** 
  54:../reversi8_2019.c **** 
  55:../reversi8_2019.c **** #if 0
  56:../reversi8_2019.c ****     for (i = 3; i < 5; ++i) {
  57:../reversi8_2019.c **** 	for(j = 3; j < 5; ++j) {
  58:../reversi8_2019.c **** 	    tablero[i][j] = i == j ? FICHA_BLANCA : FICHA_NEGRA;
  59:../reversi8_2019.c **** 	}
  60:../reversi8_2019.c ****     }
  61:../reversi8_2019.c **** 
  62:../reversi8_2019.c ****     for (i = 2; i < 6; ++i) {
  63:../reversi8_2019.c **** 	for (j = 2; j < 6; ++j) {
  64:../reversi8_2019.c **** 	    if((i>=3) && (i < 5) && (j>=3) && (j<5)) {
  65:../reversi8_2019.c **** 		candidatas[i][j] = CASILLA_OCUPADA;
  66:../reversi8_2019.c **** 	    } else {
  67:../reversi8_2019.c **** 		candidatas[i][j] = SI; //CASILLA_LIBRE;
  68:../reversi8_2019.c **** 	    }
  69:../reversi8_2019.c **** 	}
  70:../reversi8_2019.c ****     }
  71:../reversi8_2019.c **** #endif
  72:../reversi8_2019.c ****     // arriba hay versión alternativa
  73:../reversi8_2019.c ****     tablero[3][3] = FICHA_BLANCA;
 1729              		.loc 1 73 0 is_stmt 1
 1730 009c 18301BE5 		ldr	r3, [fp, #-24]
 1731 00a0 183083E2 		add	r3, r3, #24
 1732 00a4 0120A0E3 		mov	r2, #1
 1733 00a8 0320C3E5 		strb	r2, [r3, #3]
  74:../reversi8_2019.c ****     tablero[4][4] = FICHA_BLANCA;
 1734              		.loc 1 74 0
 1735 00ac 18301BE5 		ldr	r3, [fp, #-24]
 1736 00b0 203083E2 		add	r3, r3, #32
 1737 00b4 0120A0E3 		mov	r2, #1
 1738 00b8 0420C3E5 		strb	r2, [r3, #4]
  75:../reversi8_2019.c ****     tablero[3][4] = FICHA_NEGRA;
 1739              		.loc 1 75 0
 1740 00bc 18301BE5 		ldr	r3, [fp, #-24]
 1741 00c0 183083E2 		add	r3, r3, #24
 1742 00c4 0220A0E3 		mov	r2, #2
 1743 00c8 0420C3E5 		strb	r2, [r3, #4]
  76:../reversi8_2019.c ****     tablero[4][3] = FICHA_NEGRA;
 1744              		.loc 1 76 0
 1745 00cc 18301BE5 		ldr	r3, [fp, #-24]
 1746 00d0 203083E2 		add	r3, r3, #32
 1747 00d4 0220A0E3 		mov	r2, #2
 1748 00d8 0320C3E5 		strb	r2, [r3, #3]
  77:../reversi8_2019.c **** 
  78:../reversi8_2019.c ****     candidatas[3][3] = CASILLA_OCUPADA;
 1749              		.loc 1 78 0
 1750 00dc C4309FE5 		ldr	r3, .L6
 1751 00e0 0220A0E3 		mov	r2, #2
 1752 00e4 1B20C3E5 		strb	r2, [r3, #27]
  79:../reversi8_2019.c ****     candidatas[4][4] = CASILLA_OCUPADA;
 1753              		.loc 1 79 0
 1754 00e8 B8309FE5 		ldr	r3, .L6
 1755 00ec 0220A0E3 		mov	r2, #2
 1756 00f0 2420C3E5 		strb	r2, [r3, #36]
  80:../reversi8_2019.c ****     candidatas[3][4] = CASILLA_OCUPADA;
 1757              		.loc 1 80 0
 1758 00f4 AC309FE5 		ldr	r3, .L6
 1759 00f8 0220A0E3 		mov	r2, #2
 1760 00fc 1C20C3E5 		strb	r2, [r3, #28]
  81:../reversi8_2019.c ****     candidatas[4][3] = CASILLA_OCUPADA;
 1761              		.loc 1 81 0
 1762 0100 A0309FE5 		ldr	r3, .L6
 1763 0104 0220A0E3 		mov	r2, #2
 1764 0108 2320C3E5 		strb	r2, [r3, #35]
  82:../reversi8_2019.c **** 
  83:../reversi8_2019.c ****     // casillas a explorar:
  84:../reversi8_2019.c ****     candidatas[2][2] = SI;
 1765              		.loc 1 84 0
 1766 010c 94309FE5 		ldr	r3, .L6
 1767 0110 0120A0E3 		mov	r2, #1
 1768 0114 1220C3E5 		strb	r2, [r3, #18]
  85:../reversi8_2019.c ****     candidatas[2][3] = SI;
 1769              		.loc 1 85 0
 1770 0118 88309FE5 		ldr	r3, .L6
 1771 011c 0120A0E3 		mov	r2, #1
 1772 0120 1320C3E5 		strb	r2, [r3, #19]
  86:../reversi8_2019.c ****     candidatas[2][4] = SI;
 1773              		.loc 1 86 0
 1774 0124 7C309FE5 		ldr	r3, .L6
 1775 0128 0120A0E3 		mov	r2, #1
 1776 012c 1420C3E5 		strb	r2, [r3, #20]
  87:../reversi8_2019.c ****     candidatas[2][5] = SI;
 1777              		.loc 1 87 0
 1778 0130 70309FE5 		ldr	r3, .L6
 1779 0134 0120A0E3 		mov	r2, #1
 1780 0138 1520C3E5 		strb	r2, [r3, #21]
  88:../reversi8_2019.c ****     candidatas[3][2] = SI;
 1781              		.loc 1 88 0
 1782 013c 64309FE5 		ldr	r3, .L6
 1783 0140 0120A0E3 		mov	r2, #1
 1784 0144 1A20C3E5 		strb	r2, [r3, #26]
  89:../reversi8_2019.c ****     candidatas[3][5] = SI;
 1785              		.loc 1 89 0
 1786 0148 58309FE5 		ldr	r3, .L6
 1787 014c 0120A0E3 		mov	r2, #1
 1788 0150 1D20C3E5 		strb	r2, [r3, #29]
  90:../reversi8_2019.c ****     candidatas[4][2] = SI;
 1789              		.loc 1 90 0
 1790 0154 4C309FE5 		ldr	r3, .L6
 1791 0158 0120A0E3 		mov	r2, #1
 1792 015c 2220C3E5 		strb	r2, [r3, #34]
  91:../reversi8_2019.c ****     candidatas[4][5] = SI;
 1793              		.loc 1 91 0
 1794 0160 40309FE5 		ldr	r3, .L6
 1795 0164 0120A0E3 		mov	r2, #1
 1796 0168 2520C3E5 		strb	r2, [r3, #37]
  92:../reversi8_2019.c ****     candidatas[5][2] = SI;
 1797              		.loc 1 92 0
 1798 016c 34309FE5 		ldr	r3, .L6
 1799 0170 0120A0E3 		mov	r2, #1
 1800 0174 2A20C3E5 		strb	r2, [r3, #42]
  93:../reversi8_2019.c ****     candidatas[5][3] = SI;
 1801              		.loc 1 93 0
 1802 0178 28309FE5 		ldr	r3, .L6
 1803 017c 0120A0E3 		mov	r2, #1
 1804 0180 2B20C3E5 		strb	r2, [r3, #43]
  94:../reversi8_2019.c ****     candidatas[5][4] = SI;
 1805              		.loc 1 94 0
 1806 0184 1C309FE5 		ldr	r3, .L6
 1807 0188 0120A0E3 		mov	r2, #1
 1808 018c 2C20C3E5 		strb	r2, [r3, #44]
  95:../reversi8_2019.c ****     candidatas[5][5] = SI;
 1809              		.loc 1 95 0
 1810 0190 10309FE5 		ldr	r3, .L6
 1811 0194 0120A0E3 		mov	r2, #1
 1812 0198 2D20C3E5 		strb	r2, [r3, #45]
  96:../reversi8_2019.c **** }
 1813              		.loc 1 96 0
 1814 019c 0CD04BE2 		sub	sp, fp, #12
 1815 01a0 00689DE8 		ldmfd	sp, {fp, sp, lr}
 1816 01a4 1EFF2FE1 		bx	lr
 1817              	.L7:
 1818              		.align	2
 1819              	.L6:
 1820 01a8 00000000 		.word	candidatas
 1821              		.cfi_endproc
 1822              	.LFE0:
 1824              		.align	2
 1825              		.global	asignar_celda
 1827              	asignar_celda:
 1828              	.LFB1:
  97:../reversi8_2019.c **** 
  98:../reversi8_2019.c **** 
  99:../reversi8_2019.c **** 
 100:../reversi8_2019.c **** void asignar_celda(int fila, int columna, int color){
 1829              		.loc 1 100 0
 1830              		.cfi_startproc
 1831              		@ Function supports interworking.
 1832              		@ args = 0, pretend = 0, frame = 16
 1833              		@ frame_needed = 1, uses_anonymous_args = 0
 1834 01ac 0DC0A0E1 		mov	ip, sp
 1835              	.LCFI2:
 1836              		.cfi_def_cfa_register 12
 1837 01b0 00D82DE9 		stmfd	sp!, {fp, ip, lr, pc}
 1838 01b4 04B04CE2 		sub	fp, ip, #4
 1839              		.cfi_offset 14, -8
 1840              		.cfi_offset 13, -12
 1841              		.cfi_offset 11, -16
 1842              	.LCFI3:
 1843              		.cfi_def_cfa 11, 4
 1844 01b8 10D04DE2 		sub	sp, sp, #16
 1845 01bc 10000BE5 		str	r0, [fp, #-16]
 1846 01c0 14100BE5 		str	r1, [fp, #-20]
 1847 01c4 18200BE5 		str	r2, [fp, #-24]
 101:../reversi8_2019.c **** 	tablero[fila][columna] = color;
 1848              		.loc 1 101 0
 1849 01c8 18301BE5 		ldr	r3, [fp, #-24]
 1850 01cc FF2003E2 		and	r2, r3, #255
 1851 01d0 20109FE5 		ldr	r1, .L9
 1852 01d4 10301BE5 		ldr	r3, [fp, #-16]
 1853 01d8 8301A0E1 		mov	r0, r3, asl #3
 1854 01dc 14301BE5 		ldr	r3, [fp, #-20]
 1855 01e0 033080E0 		add	r3, r0, r3
 1856 01e4 033081E0 		add	r3, r1, r3
 1857 01e8 0020C3E5 		strb	r2, [r3, #0]
 102:../reversi8_2019.c **** }
 1858              		.loc 1 102 0
 1859 01ec 0CD04BE2 		sub	sp, fp, #12
 1860 01f0 00689DE8 		ldmfd	sp, {fp, sp, lr}
 1861 01f4 1EFF2FE1 		bx	lr
 1862              	.L10:
 1863              		.align	2
 1864              	.L9:
 1865 01f8 00000000 		.word	tablero
 1866              		.cfi_endproc
 1867              	.LFE1:
 1869              		.align	2
 1870              		.global	ficha_valida_juego
 1872              	ficha_valida_juego:
 1873              	.LFB2:
 103:../reversi8_2019.c **** ////////////////////////////////////////////////////////////////////////////////
 104:../reversi8_2019.c **** //++++++++++++++++++++++++++++++++++++++++++++++++++++++++++++++++++++++++++++++
 105:../reversi8_2019.c **** // IMPORTANTE: AL SUSTITUIR FICHA_VALIDA() Y PATRON_VOLTEO()
 106:../reversi8_2019.c **** // POR RUTINAS EN ENSAMBLADOR HAY QUE RESPETAR LA MODULARIDAD.
 107:../reversi8_2019.c **** // DEBEN SEGUIR SIENDO LLAMADAS A FUNCIONES Y DEBEN CUMPLIR CON EL ATPCS
 108:../reversi8_2019.c **** // (VER TRANSPARENCIAS Y MATERIAL DE PRACTICAS):
 109:../reversi8_2019.c **** //  - DEBEN PASAR LOS PARAMETROS POR LOS REGISTROS CORRESPONDIENTES
 110:../reversi8_2019.c **** //  - GUARDAR EN PILA SOLO LOS REGISTROS QUE TOCAN
 111:../reversi8_2019.c **** //  - CREAR UN MARCO DE PILA TAL Y COMO MUESTRAN LAS TRANSPARENCIAS
 112:../reversi8_2019.c **** //    DE LA ASIGNATURA (CON EL PC, FP, LR,....)
 113:../reversi8_2019.c **** //  - EN EL CASO DE LAS VARIABLES LOCALES, SOLO HAY QUE APILARLAS
 114:../reversi8_2019.c **** //    SI NO SE PUEDEN COLOCAR EN UN REGISTRO.
 115:../reversi8_2019.c **** //    SI SE COLOCAN EN UN REGISTRO NO HACE FALTA
 116:../reversi8_2019.c **** //    NI GUARDARLAS EN PILA NI RESERVAR UN ESPACIO EN LA PILA PARA ELLAS
 117:../reversi8_2019.c **** //++++++++++++++++++++++++++++++++++++++++++++++++++++++++++++++++++++++++++++++
 118:../reversi8_2019.c **** ////////////////////////////////////////////////////////////////////////////////
 119:../reversi8_2019.c **** 
 120:../reversi8_2019.c ****  // Valida la casilla en la que quiere colocar fichar el jugador.
 121:../reversi8_2019.c **** uint8_t ficha_valida_juego(uint8_t f, uint8_t c){
 1874              		.loc 1 121 0
 1875              		.cfi_startproc
 1876              		@ Function supports interworking.
 1877              		@ args = 0, pretend = 0, frame = 24
 1878              		@ frame_needed = 1, uses_anonymous_args = 0
 1879 01fc 0DC0A0E1 		mov	ip, sp
 1880              	.LCFI4:
 1881              		.cfi_def_cfa_register 12
 1882 0200 00D82DE9 		stmfd	sp!, {fp, ip, lr, pc}
 1883 0204 04B04CE2 		sub	fp, ip, #4
 1884              		.cfi_offset 14, -8
 1885              		.cfi_offset 13, -12
 1886              		.cfi_offset 11, -16
 1887              	.LCFI5:
 1888              		.cfi_def_cfa 11, 4
 1889 0208 18D04DE2 		sub	sp, sp, #24
 1890 020c 0020A0E1 		mov	r2, r0
 1891 0210 0130A0E1 		mov	r3, r1
 1892 0214 1D204BE5 		strb	r2, [fp, #-29]
 1893 0218 1E304BE5 		strb	r3, [fp, #-30]
 122:../reversi8_2019.c **** 
 123:../reversi8_2019.c ****     int i;
 124:../reversi8_2019.c ****     int j;
 125:../reversi8_2019.c ****     int fila = 0;
 1894              		.loc 1 125 0
 1895 021c 0030A0E3 		mov	r3, #0
 1896 0220 18300BE5 		str	r3, [fp, #-24]
 126:../reversi8_2019.c ****     int columna = 0;
 1897              		.loc 1 126 0
 1898 0224 0030A0E3 		mov	r3, #0
 1899 0228 1C300BE5 		str	r3, [fp, #-28]
 127:../reversi8_2019.c ****     if(tablero[f][c] != CASILLA_VACIA)
 1900              		.loc 1 127 0
 1901 022c 1D105BE5 		ldrb	r1, [fp, #-29]	@ zero_extendqisi2
 1902 0230 1E305BE5 		ldrb	r3, [fp, #-30]	@ zero_extendqisi2
 1903 0234 A8219FE5 		ldr	r2, .L23
 1904 0238 8111A0E1 		mov	r1, r1, asl #3
 1905 023c 033081E0 		add	r3, r1, r3
 1906 0240 033082E0 		add	r3, r2, r3
 1907 0244 0030D3E5 		ldrb	r3, [r3, #0]	@ zero_extendqisi2
 1908 0248 000053E3 		cmp	r3, #0
 1909 024c 0100000A 		beq	.L12
 128:../reversi8_2019.c ****             return 0;
 1910              		.loc 1 128 0
 1911 0250 0030A0E3 		mov	r3, #0
 1912 0254 5E0000EA 		b	.L13
 1913              	.L12:
 129:../reversi8_2019.c ****     //Verifica si hay alguna ficha blanca adyacente a la casilla donde se coloca ficha.
 130:../reversi8_2019.c ****     for(i = -1; i <= 1; i++){
 1914              		.loc 1 130 0
 1915 0258 0030E0E3 		mvn	r3, #0
 1916 025c 10300BE5 		str	r3, [fp, #-16]
 1917 0260 570000EA 		b	.L14
 1918              	.L22:
 131:../reversi8_2019.c ****     	for(j = -1; j <=1; j++){
 1919              		.loc 1 131 0
 1920 0264 0030E0E3 		mvn	r3, #0
 1921 0268 14300BE5 		str	r3, [fp, #-20]
 1922 026c 4E0000EA 		b	.L15
 1923              	.L21:
 132:../reversi8_2019.c ****             fila = i + f;
 1924              		.loc 1 132 0
 1925 0270 1D205BE5 		ldrb	r2, [fp, #-29]	@ zero_extendqisi2
 1926 0274 10301BE5 		ldr	r3, [fp, #-16]
 1927 0278 033082E0 		add	r3, r2, r3
 1928 027c 18300BE5 		str	r3, [fp, #-24]
 133:../reversi8_2019.c ****             columna = j + c;
 1929              		.loc 1 133 0
 1930 0280 1E205BE5 		ldrb	r2, [fp, #-30]	@ zero_extendqisi2
 1931 0284 14301BE5 		ldr	r3, [fp, #-20]
 1932 0288 033082E0 		add	r3, r2, r3
 1933 028c 1C300BE5 		str	r3, [fp, #-28]
 134:../reversi8_2019.c ****                 if((j != 0 || i != 0) && tablero[fila][columna] == FICHA_BLANCA
 1934              		.loc 1 134 0
 1935 0290 14301BE5 		ldr	r3, [fp, #-20]
 1936 0294 000053E3 		cmp	r3, #0
 1937 0298 0200001A 		bne	.L16
 1938              		.loc 1 134 0 is_stmt 0 discriminator 2
 1939 029c 10301BE5 		ldr	r3, [fp, #-16]
 1940 02a0 000053E3 		cmp	r3, #0
 1941 02a4 3D00000A 		beq	.L17
 1942              	.L16:
 1943              		.loc 1 134 0 discriminator 1
 1944 02a8 34219FE5 		ldr	r2, .L23
 1945 02ac 18301BE5 		ldr	r3, [fp, #-24]
 1946 02b0 8311A0E1 		mov	r1, r3, asl #3
 1947 02b4 1C301BE5 		ldr	r3, [fp, #-28]
 1948 02b8 033081E0 		add	r3, r1, r3
 1949 02bc 033082E0 		add	r3, r2, r3
 1950 02c0 0030D3E5 		ldrb	r3, [r3, #0]	@ zero_extendqisi2
 1951 02c4 010053E3 		cmp	r3, #1
 1952 02c8 3400001A 		bne	.L17
 135:../reversi8_2019.c ****                         && fila > 0 && columna > 0 && fila < DIM && columna < DIM){
 1953              		.loc 1 135 0 is_stmt 1
 1954 02cc 18301BE5 		ldr	r3, [fp, #-24]
 1955 02d0 000053E3 		cmp	r3, #0
 1956 02d4 310000DA 		ble	.L17
 1957              		.loc 1 135 0 is_stmt 0 discriminator 1
 1958 02d8 1C301BE5 		ldr	r3, [fp, #-28]
 1959 02dc 000053E3 		cmp	r3, #0
 1960 02e0 2E0000DA 		ble	.L17
 1961 02e4 18301BE5 		ldr	r3, [fp, #-24]
 1962 02e8 070053E3 		cmp	r3, #7
 1963 02ec 2B0000CA 		bgt	.L17
 1964 02f0 1C301BE5 		ldr	r3, [fp, #-28]
 1965 02f4 070053E3 		cmp	r3, #7
 1966 02f8 280000CA 		bgt	.L17
 136:../reversi8_2019.c ****                 	//Verfica si se rodea a una ficha blanca entre la ficha a colocar y una negra del 
 137:../reversi8_2019.c ****                     while(tablero[fila][columna] == FICHA_BLANCA
 1967              		.loc 1 137 0 is_stmt 1
 1968 02fc 070000EA 		b	.L18
 1969              	.L20:
 138:../reversi8_2019.c ****                             && fila > 0 && columna > 0 && fila < DIM && columna < DIM){
 139:../reversi8_2019.c ****                         fila += i;
 1970              		.loc 1 139 0
 1971 0300 18201BE5 		ldr	r2, [fp, #-24]
 1972 0304 10301BE5 		ldr	r3, [fp, #-16]
 1973 0308 033082E0 		add	r3, r2, r3
 1974 030c 18300BE5 		str	r3, [fp, #-24]
 140:../reversi8_2019.c ****                         columna += j;
 1975              		.loc 1 140 0
 1976 0310 1C201BE5 		ldr	r2, [fp, #-28]
 1977 0314 14301BE5 		ldr	r3, [fp, #-20]
 1978 0318 033082E0 		add	r3, r2, r3
 1979 031c 1C300BE5 		str	r3, [fp, #-28]
 1980              	.L18:
 137:../reversi8_2019.c ****                     while(tablero[fila][columna] == FICHA_BLANCA
 1981              		.loc 1 137 0 discriminator 1
 1982 0320 BC209FE5 		ldr	r2, .L23
 1983 0324 18301BE5 		ldr	r3, [fp, #-24]
 1984 0328 8311A0E1 		mov	r1, r3, asl #3
 1985 032c 1C301BE5 		ldr	r3, [fp, #-28]
 1986 0330 033081E0 		add	r3, r1, r3
 1987 0334 033082E0 		add	r3, r2, r3
 1988 0338 0030D3E5 		ldrb	r3, [r3, #0]	@ zero_extendqisi2
 1989 033c 010053E3 		cmp	r3, #1
 1990 0340 0B00001A 		bne	.L19
 138:../reversi8_2019.c ****                             && fila > 0 && columna > 0 && fila < DIM && columna < DIM){
 1991              		.loc 1 138 0
 1992 0344 18301BE5 		ldr	r3, [fp, #-24]
 1993 0348 000053E3 		cmp	r3, #0
 1994 034c 080000DA 		ble	.L19
 138:../reversi8_2019.c ****                             && fila > 0 && columna > 0 && fila < DIM && columna < DIM){
 1995              		.loc 1 138 0 is_stmt 0 discriminator 1
 1996 0350 1C301BE5 		ldr	r3, [fp, #-28]
 1997 0354 000053E3 		cmp	r3, #0
 1998 0358 050000DA 		ble	.L19
 1999 035c 18301BE5 		ldr	r3, [fp, #-24]
 2000 0360 070053E3 		cmp	r3, #7
 2001 0364 020000CA 		bgt	.L19
 2002 0368 1C301BE5 		ldr	r3, [fp, #-28]
 2003 036c 070053E3 		cmp	r3, #7
 2004 0370 E2FFFFDA 		ble	.L20
 2005              	.L19:
 141:../reversi8_2019.c ****                     }
 142:../reversi8_2019.c ****                     if(tablero[fila][columna] == FICHA_NEGRA)
 2006              		.loc 1 142 0 is_stmt 1
 2007 0374 68209FE5 		ldr	r2, .L23
 2008 0378 18301BE5 		ldr	r3, [fp, #-24]
 2009 037c 8311A0E1 		mov	r1, r3, asl #3
 2010 0380 1C301BE5 		ldr	r3, [fp, #-28]
 2011 0384 033081E0 		add	r3, r1, r3
 2012 0388 033082E0 		add	r3, r2, r3
 2013 038c 0030D3E5 		ldrb	r3, [r3, #0]	@ zero_extendqisi2
 2014 0390 020053E3 		cmp	r3, #2
 2015 0394 0100001A 		bne	.L17
 143:../reversi8_2019.c ****                     	return 1;
 2016              		.loc 1 143 0
 2017 0398 0130A0E3 		mov	r3, #1
 2018 039c 0C0000EA 		b	.L13
 2019              	.L17:
 131:../reversi8_2019.c ****     	for(j = -1; j <=1; j++){
 2020              		.loc 1 131 0
 2021 03a0 14301BE5 		ldr	r3, [fp, #-20]
 2022 03a4 013083E2 		add	r3, r3, #1
 2023 03a8 14300BE5 		str	r3, [fp, #-20]
 2024              	.L15:
 131:../reversi8_2019.c ****     	for(j = -1; j <=1; j++){
 2025              		.loc 1 131 0 is_stmt 0 discriminator 1
 2026 03ac 14301BE5 		ldr	r3, [fp, #-20]
 2027 03b0 010053E3 		cmp	r3, #1
 2028 03b4 ADFFFFDA 		ble	.L21
 130:../reversi8_2019.c ****     for(i = -1; i <= 1; i++){
 2029              		.loc 1 130 0 is_stmt 1
 2030 03b8 10301BE5 		ldr	r3, [fp, #-16]
 2031 03bc 013083E2 		add	r3, r3, #1
 2032 03c0 10300BE5 		str	r3, [fp, #-16]
 2033              	.L14:
 130:../reversi8_2019.c ****     for(i = -1; i <= 1; i++){
 2034              		.loc 1 130 0 is_stmt 0 discriminator 1
 2035 03c4 10301BE5 		ldr	r3, [fp, #-16]
 2036 03c8 010053E3 		cmp	r3, #1
 2037 03cc A4FFFFDA 		ble	.L22
 144:../reversi8_2019.c ****     		}
 145:../reversi8_2019.c ****     	}
 146:../reversi8_2019.c ****     }
 147:../reversi8_2019.c ****     return 0;
 2038              		.loc 1 147 0 is_stmt 1
 2039 03d0 0030A0E3 		mov	r3, #0
 2040              	.L13:
 148:../reversi8_2019.c **** }
 2041              		.loc 1 148 0
 2042 03d4 0300A0E1 		mov	r0, r3
 2043 03d8 0CD04BE2 		sub	sp, fp, #12
 2044 03dc 00689DE8 		ldmfd	sp, {fp, sp, lr}
 2045 03e0 1EFF2FE1 		bx	lr
 2046              	.L24:
 2047              		.align	2
 2048              	.L23:
 2049 03e4 00000000 		.word	tablero
 2050              		.cfi_endproc
 2051              	.LFE2:
 2053              		.align	2
 2054              		.global	posicion_ocupada
 2056              	posicion_ocupada:
 2057              	.LFB3:
 149:../reversi8_2019.c **** 
 150:../reversi8_2019.c **** int posicion_ocupada(int fila, int columna){
 2058              		.loc 1 150 0
 2059              		.cfi_startproc
 2060              		@ Function supports interworking.
 2061              		@ args = 0, pretend = 0, frame = 8
 2062              		@ frame_needed = 1, uses_anonymous_args = 0
 2063 03e8 0DC0A0E1 		mov	ip, sp
 2064              	.LCFI6:
 2065              		.cfi_def_cfa_register 12
 2066 03ec 00D82DE9 		stmfd	sp!, {fp, ip, lr, pc}
 2067 03f0 04B04CE2 		sub	fp, ip, #4
 2068              		.cfi_offset 14, -8
 2069              		.cfi_offset 13, -12
 2070              		.cfi_offset 11, -16
 2071              	.LCFI7:
 2072              		.cfi_def_cfa 11, 4
 2073 03f4 08D04DE2 		sub	sp, sp, #8
 2074 03f8 10000BE5 		str	r0, [fp, #-16]
 2075 03fc 14100BE5 		str	r1, [fp, #-20]
 151:../reversi8_2019.c **** 	return tablero[fila][columna] == FICHA_BLANCA ||
 2076              		.loc 1 151 0
 2077 0400 5C209FE5 		ldr	r2, .L29
 2078 0404 10301BE5 		ldr	r3, [fp, #-16]
 2079 0408 8311A0E1 		mov	r1, r3, asl #3
 2080 040c 14301BE5 		ldr	r3, [fp, #-20]
 2081 0410 033081E0 		add	r3, r1, r3
 2082 0414 033082E0 		add	r3, r2, r3
 2083 0418 0030D3E5 		ldrb	r3, [r3, #0]	@ zero_extendqisi2
 2084 041c 010053E3 		cmp	r3, #1
 2085 0420 0800000A 		beq	.L26
 152:../reversi8_2019.c **** 			tablero[fila][columna] == FICHA_NEGRA;
 2086              		.loc 1 152 0 discriminator 2
 2087 0424 38209FE5 		ldr	r2, .L29
 2088 0428 10301BE5 		ldr	r3, [fp, #-16]
 2089 042c 8311A0E1 		mov	r1, r3, asl #3
 2090 0430 14301BE5 		ldr	r3, [fp, #-20]
 2091 0434 033081E0 		add	r3, r1, r3
 2092 0438 033082E0 		add	r3, r2, r3
 2093 043c 0030D3E5 		ldrb	r3, [r3, #0]	@ zero_extendqisi2
 151:../reversi8_2019.c **** 	return tablero[fila][columna] == FICHA_BLANCA ||
 2094              		.loc 1 151 0 discriminator 2
 2095 0440 020053E3 		cmp	r3, #2
 2096 0444 0100001A 		bne	.L27
 2097              	.L26:
 151:../reversi8_2019.c **** 	return tablero[fila][columna] == FICHA_BLANCA ||
 2098              		.loc 1 151 0 is_stmt 0 discriminator 1
 2099 0448 0130A0E3 		mov	r3, #1
 2100 044c 000000EA 		b	.L28
 2101              	.L27:
 2102 0450 0030A0E3 		mov	r3, #0
 2103              	.L28:
 153:../reversi8_2019.c **** }
 2104              		.loc 1 153 0 is_stmt 1 discriminator 3
 2105 0454 0300A0E1 		mov	r0, r3
 2106 0458 0CD04BE2 		sub	sp, fp, #12
 2107 045c 00689DE8 		ldmfd	sp, {fp, sp, lr}
 2108 0460 1EFF2FE1 		bx	lr
 2109              	.L30:
 2110              		.align	2
 2111              	.L29:
 2112 0464 00000000 		.word	tablero
 2113              		.cfi_endproc
 2114              	.LFE3:
 2116              		.align	2
 2117              		.global	obtener_ficha_celda
 2119              	obtener_ficha_celda:
 2120              	.LFB4:
 154:../reversi8_2019.c **** 
 155:../reversi8_2019.c **** int obtener_ficha_celda(int f, int c){
 2121              		.loc 1 155 0
 2122              		.cfi_startproc
 2123              		@ Function supports interworking.
 2124              		@ args = 0, pretend = 0, frame = 8
 2125              		@ frame_needed = 1, uses_anonymous_args = 0
 2126 0468 0DC0A0E1 		mov	ip, sp
 2127              	.LCFI8:
 2128              		.cfi_def_cfa_register 12
 2129 046c 00D82DE9 		stmfd	sp!, {fp, ip, lr, pc}
 2130 0470 04B04CE2 		sub	fp, ip, #4
 2131              		.cfi_offset 14, -8
 2132              		.cfi_offset 13, -12
 2133              		.cfi_offset 11, -16
 2134              	.LCFI9:
 2135              		.cfi_def_cfa 11, 4
 2136 0474 08D04DE2 		sub	sp, sp, #8
 2137 0478 10000BE5 		str	r0, [fp, #-16]
 2138 047c 14100BE5 		str	r1, [fp, #-20]
 156:../reversi8_2019.c **** 	return tablero[f][c];
 2139              		.loc 1 156 0
 2140 0480 24209FE5 		ldr	r2, .L32
 2141 0484 10301BE5 		ldr	r3, [fp, #-16]
 2142 0488 8311A0E1 		mov	r1, r3, asl #3
 2143 048c 14301BE5 		ldr	r3, [fp, #-20]
 2144 0490 033081E0 		add	r3, r1, r3
 2145 0494 033082E0 		add	r3, r2, r3
 2146 0498 0030D3E5 		ldrb	r3, [r3, #0]	@ zero_extendqisi2
 157:../reversi8_2019.c **** }
 2147              		.loc 1 157 0
 2148 049c 0300A0E1 		mov	r0, r3
 2149 04a0 0CD04BE2 		sub	sp, fp, #12
 2150 04a4 00689DE8 		ldmfd	sp, {fp, sp, lr}
 2151 04a8 1EFF2FE1 		bx	lr
 2152              	.L33:
 2153              		.align	2
 2154              	.L32:
 2155 04ac 00000000 		.word	tablero
 2156              		.cfi_endproc
 2157              	.LFE4:
 2159              		.align	2
 2160              		.global	ficha_valida
 2162              	ficha_valida:
 2163              	.LFB5:
 158:../reversi8_2019.c **** // Devuelve el contenido de la posición indicadas por la fila y columna actual.
 159:../reversi8_2019.c **** // Además informa si la posición es válida y contiene alguna ficha.
 160:../reversi8_2019.c **** // Esto lo hace por referencia (en *posicion_valida)
 161:../reversi8_2019.c **** // Si devuelve un 0 no es válida o está vacia.
 162:../reversi8_2019.c **** uint8_t ficha_valida(uint8_t f, uint8_t c, int *posicion_valida)
 163:../reversi8_2019.c **** {
 2164              		.loc 1 163 0
 2165              		.cfi_startproc
 2166              		@ Function supports interworking.
 2167              		@ args = 0, pretend = 0, frame = 16
 2168              		@ frame_needed = 1, uses_anonymous_args = 0
 2169 04b0 0DC0A0E1 		mov	ip, sp
 2170              	.LCFI10:
 2171              		.cfi_def_cfa_register 12
 2172 04b4 00D82DE9 		stmfd	sp!, {fp, ip, lr, pc}
 2173 04b8 04B04CE2 		sub	fp, ip, #4
 2174              		.cfi_offset 14, -8
 2175              		.cfi_offset 13, -12
 2176              		.cfi_offset 11, -16
 2177              	.LCFI11:
 2178              		.cfi_def_cfa 11, 4
 2179 04bc 10D04DE2 		sub	sp, sp, #16
 2180 04c0 0130A0E1 		mov	r3, r1
 2181 04c4 1C200BE5 		str	r2, [fp, #-28]
 2182 04c8 0020A0E1 		mov	r2, r0
 2183 04cc 15204BE5 		strb	r2, [fp, #-21]
 2184 04d0 16304BE5 		strb	r3, [fp, #-22]
 164:../reversi8_2019.c ****     char ficha;
 165:../reversi8_2019.c **** 
 166:../reversi8_2019.c ****     // ficha = tablero[f][c];
 167:../reversi8_2019.c ****     // no puede accederse a tablero[f][c]
 168:../reversi8_2019.c ****     // ya que algún índice puede ser negativo
 169:../reversi8_2019.c **** 
 170:../reversi8_2019.c ****     if ((f < DIM) && (f >= 0) && (c < DIM) && (c >= 0) && (tablero[f][c] != CASILLA_VACIA))
 2185              		.loc 1 170 0
 2186 04d4 15305BE5 		ldrb	r3, [fp, #-21]	@ zero_extendqisi2
 2187 04d8 070053E3 		cmp	r3, #7
 2188 04dc 1700008A 		bhi	.L35
 2189              		.loc 1 170 0 is_stmt 0 discriminator 1
 2190 04e0 16305BE5 		ldrb	r3, [fp, #-22]	@ zero_extendqisi2
 2191 04e4 070053E3 		cmp	r3, #7
 2192 04e8 1400008A 		bhi	.L35
 2193 04ec 15105BE5 		ldrb	r1, [fp, #-21]	@ zero_extendqisi2
 2194 04f0 16305BE5 		ldrb	r3, [fp, #-22]	@ zero_extendqisi2
 2195 04f4 6C209FE5 		ldr	r2, .L37
 2196 04f8 8111A0E1 		mov	r1, r1, asl #3
 2197 04fc 033081E0 		add	r3, r1, r3
 2198 0500 033082E0 		add	r3, r2, r3
 2199 0504 0030D3E5 		ldrb	r3, [r3, #0]	@ zero_extendqisi2
 2200 0508 000053E3 		cmp	r3, #0
 2201 050c 0B00000A 		beq	.L35
 171:../reversi8_2019.c ****     {
 172:../reversi8_2019.c ****         *posicion_valida = 1;
 2202              		.loc 1 172 0 is_stmt 1
 2203 0510 1C301BE5 		ldr	r3, [fp, #-28]
 2204 0514 0120A0E3 		mov	r2, #1
 2205 0518 002083E5 		str	r2, [r3, #0]
 173:../reversi8_2019.c ****         ficha = tablero[f][c];
 2206              		.loc 1 173 0
 2207 051c 15105BE5 		ldrb	r1, [fp, #-21]	@ zero_extendqisi2
 2208 0520 16305BE5 		ldrb	r3, [fp, #-22]	@ zero_extendqisi2
 2209 0524 3C209FE5 		ldr	r2, .L37
 2210 0528 8111A0E1 		mov	r1, r1, asl #3
 2211 052c 033081E0 		add	r3, r1, r3
 2212 0530 033082E0 		add	r3, r2, r3
 2213 0534 0030D3E5 		ldrb	r3, [r3, #0]
 2214 0538 0D304BE5 		strb	r3, [fp, #-13]
 2215 053c 040000EA 		b	.L36
 2216              	.L35:
 174:../reversi8_2019.c ****     }
 175:../reversi8_2019.c ****     else
 176:../reversi8_2019.c ****     {
 177:../reversi8_2019.c ****         *posicion_valida = 0;
 2217              		.loc 1 177 0
 2218 0540 1C301BE5 		ldr	r3, [fp, #-28]
 2219 0544 0020A0E3 		mov	r2, #0
 2220 0548 002083E5 		str	r2, [r3, #0]
 178:../reversi8_2019.c ****         ficha = CASILLA_VACIA;
 2221              		.loc 1 178 0
 2222 054c 0030A0E3 		mov	r3, #0
 2223 0550 0D304BE5 		strb	r3, [fp, #-13]
 2224              	.L36:
 179:../reversi8_2019.c ****     }
 180:../reversi8_2019.c ****     return ficha;
 2225              		.loc 1 180 0
 2226 0554 0D305BE5 		ldrb	r3, [fp, #-13]	@ zero_extendqisi2
 181:../reversi8_2019.c **** }
 2227              		.loc 1 181 0
 2228 0558 0300A0E1 		mov	r0, r3
 2229 055c 0CD04BE2 		sub	sp, fp, #12
 2230 0560 00689DE8 		ldmfd	sp, {fp, sp, lr}
 2231 0564 1EFF2FE1 		bx	lr
 2232              	.L38:
 2233              		.align	2
 2234              	.L37:
 2235 0568 00000000 		.word	tablero
 2236              		.cfi_endproc
 2237              	.LFE5:
 2239              		.align	2
 2240              		.global	patron_volteo
 2242              	patron_volteo:
 2243              	.LFB6:
 182:../reversi8_2019.c **** 
 183:../reversi8_2019.c **** ////////////////////////////////////////////////////////////////////////////////
 184:../reversi8_2019.c **** // La función patrón volteo comprueba si hay que actualizar una determinada direccion,
 185:../reversi8_2019.c **** // busca el patrón de volteo (n fichas del rival seguidas de una ficha del jugador actual)
 186:../reversi8_2019.c **** // en una dirección determinada
 187:../reversi8_2019.c **** // SF y SC son las cantidades a sumar para movernos en la dirección que toque
 188:../reversi8_2019.c **** // color indica el color de la pieza que se acaba de colocar
 189:../reversi8_2019.c **** // la función devuelve PATRON_ENCONTRADO (1) si encuentra patrón y NO_HAY_PATRON (0) en caso contra
 190:../reversi8_2019.c **** // FA y CA son la fila y columna a analizar
 191:../reversi8_2019.c **** // longitud es un parámetro por referencia. Sirve para saber la longitud del patrón que se está ana
 192:../reversi8_2019.c **** //          Se usa para saber cuantas fichas habría que voltear
 193:../reversi8_2019.c **** int patron_volteo(uint8_t tablero[][DIM], int *longitud, uint8_t FA, uint8_t CA, int8_t SF, int8_t 
 194:../reversi8_2019.c **** {
 2244              		.loc 1 194 0
 2245              		.cfi_startproc
 2246              		@ Function supports interworking.
 2247              		@ args = 12, pretend = 0, frame = 32
 2248              		@ frame_needed = 1, uses_anonymous_args = 0
 2249 056c 0DC0A0E1 		mov	ip, sp
 2250              	.LCFI12:
 2251              		.cfi_def_cfa_register 12
 2252 0570 00D82DE9 		stmfd	sp!, {fp, ip, lr, pc}
 2253 0574 04B04CE2 		sub	fp, ip, #4
 2254              		.cfi_offset 14, -8
 2255              		.cfi_offset 13, -12
 2256              		.cfi_offset 11, -16
 2257              	.LCFI13:
 2258              		.cfi_def_cfa 11, 4
 2259 0578 20D04DE2 		sub	sp, sp, #32
 2260 057c 20000BE5 		str	r0, [fp, #-32]
 2261 0580 24100BE5 		str	r1, [fp, #-36]
 2262 0584 25204BE5 		strb	r2, [fp, #-37]
 2263 0588 26304BE5 		strb	r3, [fp, #-38]
 195:../reversi8_2019.c **** 	int inicio_p_v = timer2_leer();
 2264              		.loc 1 195 0
 2265 058c FEFFFFEB 		bl	timer2_leer
 2266 0590 0030A0E1 		mov	r3, r0
 2267 0594 14300BE5 		str	r3, [fp, #-20]
 196:../reversi8_2019.c **** 	int posicion_valida; // indica si la posición es valida y contiene una ficha de algún jugador
 197:../reversi8_2019.c **** 	uint8_t casilla;   // casilla es la casilla que se lee del tablero
 198:../reversi8_2019.c **** 
 199:../reversi8_2019.c **** 
 200:../reversi8_2019.c **** 
 201:../reversi8_2019.c **** 	FA = FA + SF;
 2268              		.loc 1 201 0
 2269 0598 0420DBE5 		ldrb	r2, [fp, #4]	@ zero_extendqisi2
 2270 059c 25305BE5 		ldrb	r3, [fp, #-37]
 2271 05a0 033082E0 		add	r3, r2, r3
 2272 05a4 25304BE5 		strb	r3, [fp, #-37]
 202:../reversi8_2019.c **** 	CA = CA + SC;
 2273              		.loc 1 202 0
 2274 05a8 0820DBE5 		ldrb	r2, [fp, #8]	@ zero_extendqisi2
 2275 05ac 26305BE5 		ldrb	r3, [fp, #-38]
 2276 05b0 033082E0 		add	r3, r2, r3
 2277 05b4 26304BE5 		strb	r3, [fp, #-38]
 203:../reversi8_2019.c **** 	casilla = ficha_valida(FA, CA, &posicion_valida);
 2278              		.loc 1 203 0
 2279 05b8 25105BE5 		ldrb	r1, [fp, #-37]	@ zero_extendqisi2
 2280 05bc 26205BE5 		ldrb	r2, [fp, #-38]	@ zero_extendqisi2
 2281 05c0 18304BE2 		sub	r3, fp, #24
 2282 05c4 0100A0E1 		mov	r0, r1
 2283 05c8 0210A0E1 		mov	r1, r2
 2284 05cc 0320A0E1 		mov	r2, r3
 2285 05d0 FEFFFFEB 		bl	ficha_valida
 2286 05d4 0030A0E1 		mov	r3, r0
 2287 05d8 0D304BE5 		strb	r3, [fp, #-13]
 204:../reversi8_2019.c **** 	while ((posicion_valida == 1) && (casilla != color))
 2288              		.loc 1 204 0
 2289 05dc 150000EA 		b	.L40
 2290              	.L42:
 205:../reversi8_2019.c **** 	// mientras la casilla está en el tablero, no está vací­a,
 206:../reversi8_2019.c **** 	// y es del color rival seguimos buscando el patron de volteo
 207:../reversi8_2019.c **** 	{
 208:../reversi8_2019.c **** 		FA = FA + SF;
 2291              		.loc 1 208 0
 2292 05e0 0420DBE5 		ldrb	r2, [fp, #4]	@ zero_extendqisi2
 2293 05e4 25305BE5 		ldrb	r3, [fp, #-37]
 2294 05e8 033082E0 		add	r3, r2, r3
 2295 05ec 25304BE5 		strb	r3, [fp, #-37]
 209:../reversi8_2019.c **** 		CA = CA + SC;
 2296              		.loc 1 209 0
 2297 05f0 0820DBE5 		ldrb	r2, [fp, #8]	@ zero_extendqisi2
 2298 05f4 26305BE5 		ldrb	r3, [fp, #-38]
 2299 05f8 033082E0 		add	r3, r2, r3
 2300 05fc 26304BE5 		strb	r3, [fp, #-38]
 210:../reversi8_2019.c **** 		*longitud = *longitud + 1;
 2301              		.loc 1 210 0
 2302 0600 24301BE5 		ldr	r3, [fp, #-36]
 2303 0604 003093E5 		ldr	r3, [r3, #0]
 2304 0608 012083E2 		add	r2, r3, #1
 2305 060c 24301BE5 		ldr	r3, [fp, #-36]
 2306 0610 002083E5 		str	r2, [r3, #0]
 211:../reversi8_2019.c **** 		casilla = ficha_valida(FA, CA, &posicion_valida);
 2307              		.loc 1 211 0
 2308 0614 25105BE5 		ldrb	r1, [fp, #-37]	@ zero_extendqisi2
 2309 0618 26205BE5 		ldrb	r2, [fp, #-38]	@ zero_extendqisi2
 2310 061c 18304BE2 		sub	r3, fp, #24
 2311 0620 0100A0E1 		mov	r0, r1
 2312 0624 0210A0E1 		mov	r1, r2
 2313 0628 0320A0E1 		mov	r2, r3
 2314 062c FEFFFFEB 		bl	ficha_valida
 2315 0630 0030A0E1 		mov	r3, r0
 2316 0634 0D304BE5 		strb	r3, [fp, #-13]
 2317              	.L40:
 204:../reversi8_2019.c **** 	while ((posicion_valida == 1) && (casilla != color))
 2318              		.loc 1 204 0 discriminator 1
 2319 0638 18301BE5 		ldr	r3, [fp, #-24]
 2320 063c 010053E3 		cmp	r3, #1
 2321 0640 0300001A 		bne	.L41
 204:../reversi8_2019.c **** 	while ((posicion_valida == 1) && (casilla != color))
 2322              		.loc 1 204 0 is_stmt 0 discriminator 2
 2323 0644 0D205BE5 		ldrb	r2, [fp, #-13]	@ zero_extendqisi2
 2324 0648 0C30DBE5 		ldrb	r3, [fp, #12]	@ zero_extendqisi2
 2325 064c 030052E1 		cmp	r2, r3
 2326 0650 E2FFFF1A 		bne	.L42
 2327              	.L41:
 212:../reversi8_2019.c **** 	}
 213:../reversi8_2019.c **** 	tiempo_patron_volteo += (timer2_leer() - inicio_p_v);
 2328              		.loc 1 213 0 is_stmt 1
 2329 0654 FEFFFFEB 		bl	timer2_leer
 2330 0658 0020A0E1 		mov	r2, r0
 2331 065c 14301BE5 		ldr	r3, [fp, #-20]
 2332 0660 022063E0 		rsb	r2, r3, r2
 2333 0664 6C309FE5 		ldr	r3, .L45
 2334 0668 003093E5 		ldr	r3, [r3, #0]
 2335 066c 033082E0 		add	r3, r2, r3
 2336 0670 0320A0E1 		mov	r2, r3
 2337 0674 5C309FE5 		ldr	r3, .L45
 2338 0678 002083E5 		str	r2, [r3, #0]
 214:../reversi8_2019.c **** 	accesos_patron_volteo++;
 2339              		.loc 1 214 0
 2340 067c 58309FE5 		ldr	r3, .L45+4
 2341 0680 003093E5 		ldr	r3, [r3, #0]
 2342 0684 012083E2 		add	r2, r3, #1
 2343 0688 4C309FE5 		ldr	r3, .L45+4
 2344 068c 002083E5 		str	r2, [r3, #0]
 215:../reversi8_2019.c ****     // si la ultima posición era válida y la ficha es del jugador actual,
 216:../reversi8_2019.c ****     // entonces hemos encontrado el patrón
 217:../reversi8_2019.c **** 	if ((posicion_valida == 1) && (casilla == color) && (*longitud >0))
 2345              		.loc 1 217 0
 2346 0690 18301BE5 		ldr	r3, [fp, #-24]
 2347 0694 010053E3 		cmp	r3, #1
 2348 0698 0900001A 		bne	.L43
 2349              		.loc 1 217 0 is_stmt 0 discriminator 1
 2350 069c 0D205BE5 		ldrb	r2, [fp, #-13]	@ zero_extendqisi2
 2351 06a0 0C30DBE5 		ldrb	r3, [fp, #12]	@ zero_extendqisi2
 2352 06a4 030052E1 		cmp	r2, r3
 2353 06a8 0500001A 		bne	.L43
 2354 06ac 24301BE5 		ldr	r3, [fp, #-36]
 2355 06b0 003093E5 		ldr	r3, [r3, #0]
 2356 06b4 000053E3 		cmp	r3, #0
 2357 06b8 010000DA 		ble	.L43
 218:../reversi8_2019.c **** 		return PATRON_ENCONTRADO; // si hay que voltear una ficha o más hemos encontrado el patrón
 2358              		.loc 1 218 0 is_stmt 1
 2359 06bc 0130A0E3 		mov	r3, #1
 2360 06c0 000000EA 		b	.L44
 2361              	.L43:
 219:../reversi8_2019.c **** 	else
 220:../reversi8_2019.c **** 		return NO_HAY_PATRON; // si no hay que voltear no hay patrón
 2362              		.loc 1 220 0
 2363 06c4 0030A0E3 		mov	r3, #0
 2364              	.L44:
 221:../reversi8_2019.c **** 
 222:../reversi8_2019.c **** }
 2365              		.loc 1 222 0
 2366 06c8 0300A0E1 		mov	r0, r3
 2367 06cc 0CD04BE2 		sub	sp, fp, #12
 2368 06d0 00689DE8 		ldmfd	sp, {fp, sp, lr}
 2369 06d4 1EFF2FE1 		bx	lr
 2370              	.L46:
 2371              		.align	2
 2372              	.L45:
 2373 06d8 00000000 		.word	tiempo_patron_volteo
 2374 06dc 00000000 		.word	accesos_patron_volteo
 2375              		.cfi_endproc
 2376              	.LFE6:
 2378              		.align	2
 2379              		.global	voltear
 2381              	voltear:
 2382              	.LFB7:
 223:../reversi8_2019.c **** ////////////////////////////////////////////////////////////////////////////////
 224:../reversi8_2019.c **** // voltea n fichas en la dirección que toque
 225:../reversi8_2019.c **** // SF y SC son las cantidades a sumar para movernos en la dirección que toque
 226:../reversi8_2019.c **** // color indica el color de la pieza que se acaba de colocar
 227:../reversi8_2019.c **** // FA y CA son la fila y columna a analizar
 228:../reversi8_2019.c **** void voltear(uint8_t tablero[][DIM], uint8_t FA, uint8_t CA, uint8_t SF, uint8_t SC, int n, uint8_t
 229:../reversi8_2019.c **** {
 2383              		.loc 1 229 0
 2384              		.cfi_startproc
 2385              		@ Function supports interworking.
 2386              		@ args = 12, pretend = 0, frame = 16
 2387              		@ frame_needed = 1, uses_anonymous_args = 0
 2388 06e0 0DC0A0E1 		mov	ip, sp
 2389              	.LCFI14:
 2390              		.cfi_def_cfa_register 12
 2391 06e4 00D82DE9 		stmfd	sp!, {fp, ip, lr, pc}
 2392 06e8 04B04CE2 		sub	fp, ip, #4
 2393              		.cfi_offset 14, -8
 2394              		.cfi_offset 13, -12
 2395              		.cfi_offset 11, -16
 2396              	.LCFI15:
 2397              		.cfi_def_cfa 11, 4
 2398 06ec 10D04DE2 		sub	sp, sp, #16
 2399 06f0 18000BE5 		str	r0, [fp, #-24]
 2400 06f4 19104BE5 		strb	r1, [fp, #-25]
 2401 06f8 1A204BE5 		strb	r2, [fp, #-26]
 2402 06fc 1B304BE5 		strb	r3, [fp, #-27]
 230:../reversi8_2019.c ****     int i;
 231:../reversi8_2019.c **** 
 232:../reversi8_2019.c ****     for (i = 0; i < n; i++)
 2403              		.loc 1 232 0
 2404 0700 0030A0E3 		mov	r3, #0
 2405 0704 10300BE5 		str	r3, [fp, #-16]
 2406 0708 110000EA 		b	.L48
 2407              	.L49:
 233:../reversi8_2019.c ****     {
 234:../reversi8_2019.c ****         FA = FA + SF;
 2408              		.loc 1 234 0 discriminator 2
 2409 070c 19205BE5 		ldrb	r2, [fp, #-25]
 2410 0710 1B305BE5 		ldrb	r3, [fp, #-27]
 2411 0714 033082E0 		add	r3, r2, r3
 2412 0718 19304BE5 		strb	r3, [fp, #-25]
 235:../reversi8_2019.c ****         CA = CA + SC;
 2413              		.loc 1 235 0 discriminator 2
 2414 071c 1A205BE5 		ldrb	r2, [fp, #-26]
 2415 0720 0430DBE5 		ldrb	r3, [fp, #4]
 2416 0724 033082E0 		add	r3, r2, r3
 2417 0728 1A304BE5 		strb	r3, [fp, #-26]
 236:../reversi8_2019.c ****         asignar_celda(FA, CA, color);
 2418              		.loc 1 236 0 discriminator 2
 2419 072c 19105BE5 		ldrb	r1, [fp, #-25]	@ zero_extendqisi2
 2420 0730 1A205BE5 		ldrb	r2, [fp, #-26]	@ zero_extendqisi2
 2421 0734 0C30DBE5 		ldrb	r3, [fp, #12]	@ zero_extendqisi2
 2422 0738 0100A0E1 		mov	r0, r1
 2423 073c 0210A0E1 		mov	r1, r2
 2424 0740 0320A0E1 		mov	r2, r3
 2425 0744 FEFFFFEB 		bl	asignar_celda
 232:../reversi8_2019.c ****     for (i = 0; i < n; i++)
 2426              		.loc 1 232 0 discriminator 2
 2427 0748 10301BE5 		ldr	r3, [fp, #-16]
 2428 074c 013083E2 		add	r3, r3, #1
 2429 0750 10300BE5 		str	r3, [fp, #-16]
 2430              	.L48:
 232:../reversi8_2019.c ****     for (i = 0; i < n; i++)
 2431              		.loc 1 232 0 is_stmt 0 discriminator 1
 2432 0754 10201BE5 		ldr	r2, [fp, #-16]
 2433 0758 08309BE5 		ldr	r3, [fp, #8]
 2434 075c 030052E1 		cmp	r2, r3
 2435 0760 E9FFFFBA 		blt	.L49
 237:../reversi8_2019.c ****     }
 238:../reversi8_2019.c **** }
 2436              		.loc 1 238 0 is_stmt 1
 2437 0764 0CD04BE2 		sub	sp, fp, #12
 2438 0768 00689DE8 		ldmfd	sp, {fp, sp, lr}
 2439 076c 1EFF2FE1 		bx	lr
 2440              		.cfi_endproc
 2441              	.LFE7:
 2443              		.align	2
 2444              		.global	actualizar_tablero
 2446              	actualizar_tablero:
 2447              	.LFB8:
 239:../reversi8_2019.c **** ////////////////////////////////////////////////////////////////////////////////
 240:../reversi8_2019.c **** // comprueba si hay que actualizar alguna ficha
 241:../reversi8_2019.c **** // no comprueba que el movimiento realizado sea válido
 242:../reversi8_2019.c **** // f y c son la fila y columna a analizar
 243:../reversi8_2019.c **** // uint8_t vSF[DIM] = {-1,-1, 0, 1, 1, 1, 0,-1};
 244:../reversi8_2019.c **** // uint8_t vSC[DIM] = { 0, 1, 1, 1, 0,-1,-1,-1};
 245:../reversi8_2019.c **** int actualizar_tablero(uint8_t tablero[][DIM], uint8_t f, uint8_t c, uint8_t color)
 246:../reversi8_2019.c **** {
 2448              		.loc 1 246 0
 2449              		.cfi_startproc
 2450              		@ Function supports interworking.
 2451              		@ args = 0, pretend = 0, frame = 24
 2452              		@ frame_needed = 1, uses_anonymous_args = 0
 2453 0770 0DC0A0E1 		mov	ip, sp
 2454              	.LCFI16:
 2455              		.cfi_def_cfa_register 12
 2456 0774 00D82DE9 		stmfd	sp!, {fp, ip, lr, pc}
 2457 0778 04B04CE2 		sub	fp, ip, #4
 2458              		.cfi_offset 14, -8
 2459              		.cfi_offset 13, -12
 2460              		.cfi_offset 11, -16
 2461              	.LCFI17:
 2462              		.cfi_def_cfa 11, 4
 2463 077c 28D04DE2 		sub	sp, sp, #40
 2464 0780 20000BE5 		str	r0, [fp, #-32]
 2465 0784 21104BE5 		strb	r1, [fp, #-33]
 2466 0788 22204BE5 		strb	r2, [fp, #-34]
 2467 078c 23304BE5 		strb	r3, [fp, #-35]
 247:../reversi8_2019.c ****     uint8_t SF, SC; // cantidades a sumar para movernos en la dirección que toque
 248:../reversi8_2019.c ****     int i, flip, patron;
 249:../reversi8_2019.c **** 
 250:../reversi8_2019.c ****     for (i = 0; i < DIM; i++) // 0 es Norte, 1 NE, 2 E ...
 2468              		.loc 1 250 0
 2469 0790 0030A0E3 		mov	r3, #0
 2470 0794 10300BE5 		str	r3, [fp, #-16]
 2471 0798 2C0000EA 		b	.L51
 2472              	.L53:
 251:../reversi8_2019.c ****     {
 252:../reversi8_2019.c ****         SF = vSF[i];
 2473              		.loc 1 252 0
 2474 079c CC209FE5 		ldr	r2, .L54
 2475 07a0 10301BE5 		ldr	r3, [fp, #-16]
 2476 07a4 033082E0 		add	r3, r2, r3
 2477 07a8 0030D3E5 		ldrb	r3, [r3, #0]	@ zero_extendqisi2
 2478 07ac 11304BE5 		strb	r3, [fp, #-17]
 253:../reversi8_2019.c ****         SC = vSC[i];
 2479              		.loc 1 253 0
 2480 07b0 BC209FE5 		ldr	r2, .L54+4
 2481 07b4 10301BE5 		ldr	r3, [fp, #-16]
 2482 07b8 033082E0 		add	r3, r2, r3
 2483 07bc 0030D3E5 		ldrb	r3, [r3, #0]	@ zero_extendqisi2
 2484 07c0 12304BE5 		strb	r3, [fp, #-18]
 254:../reversi8_2019.c ****         // flip: numero de fichas a voltear
 255:../reversi8_2019.c ****         flip = 0;
 2485              		.loc 1 255 0
 2486 07c4 0030A0E3 		mov	r3, #0
 2487 07c8 1C300BE5 		str	r3, [fp, #-28]
 256:../reversi8_2019.c **** 
 257:../reversi8_2019.c ****         patron = patron_volteo(tablero, &flip, f, c, SF, SC, color);
 2488              		.loc 1 257 0
 2489 07cc 11C05BE5 		ldrb	ip, [fp, #-17]	@ zero_extendqisi2
 2490 07d0 12005BE5 		ldrb	r0, [fp, #-18]	@ zero_extendqisi2
 2491 07d4 1C104BE2 		sub	r1, fp, #28
 2492 07d8 21205BE5 		ldrb	r2, [fp, #-33]	@ zero_extendqisi2
 2493 07dc 22305BE5 		ldrb	r3, [fp, #-34]	@ zero_extendqisi2
 2494 07e0 0CCCA0E1 		mov	ip, ip, asl #24
 2495 07e4 4CCCA0E1 		mov	ip, ip, asr #24
 2496 07e8 00C08DE5 		str	ip, [sp, #0]
 2497 07ec 000CA0E1 		mov	r0, r0, asl #24
 2498 07f0 400CA0E1 		mov	r0, r0, asr #24
 2499 07f4 04008DE5 		str	r0, [sp, #4]
 2500 07f8 23005BE5 		ldrb	r0, [fp, #-35]	@ zero_extendqisi2
 2501 07fc 08008DE5 		str	r0, [sp, #8]
 2502 0800 20001BE5 		ldr	r0, [fp, #-32]
 2503 0804 FEFFFFEB 		bl	patron_volteo
 2504 0808 18000BE5 		str	r0, [fp, #-24]
 258:../reversi8_2019.c ****         if (patron == PATRON_ENCONTRADO )
 2505              		.loc 1 258 0
 2506 080c 18301BE5 		ldr	r3, [fp, #-24]
 2507 0810 010053E3 		cmp	r3, #1
 2508 0814 0A00001A 		bne	.L52
 259:../reversi8_2019.c ****         {
 260:../reversi8_2019.c ****             voltear(tablero, f, c, SF, SC, flip, color);
 2509              		.loc 1 260 0
 2510 0818 1C001BE5 		ldr	r0, [fp, #-28]
 2511 081c 21105BE5 		ldrb	r1, [fp, #-33]	@ zero_extendqisi2
 2512 0820 22205BE5 		ldrb	r2, [fp, #-34]	@ zero_extendqisi2
 2513 0824 11305BE5 		ldrb	r3, [fp, #-17]	@ zero_extendqisi2
 2514 0828 12C05BE5 		ldrb	ip, [fp, #-18]	@ zero_extendqisi2
 2515 082c 00C08DE5 		str	ip, [sp, #0]
 2516 0830 04008DE5 		str	r0, [sp, #4]
 2517 0834 23005BE5 		ldrb	r0, [fp, #-35]	@ zero_extendqisi2
 2518 0838 08008DE5 		str	r0, [sp, #8]
 2519 083c 20001BE5 		ldr	r0, [fp, #-32]
 2520 0840 FEFFFFEB 		bl	voltear
 2521              	.L52:
 250:../reversi8_2019.c ****     for (i = 0; i < DIM; i++) // 0 es Norte, 1 NE, 2 E ...
 2522              		.loc 1 250 0
 2523 0844 10301BE5 		ldr	r3, [fp, #-16]
 2524 0848 013083E2 		add	r3, r3, #1
 2525 084c 10300BE5 		str	r3, [fp, #-16]
 2526              	.L51:
 250:../reversi8_2019.c ****     for (i = 0; i < DIM; i++) // 0 es Norte, 1 NE, 2 E ...
 2527              		.loc 1 250 0 is_stmt 0 discriminator 1
 2528 0850 10301BE5 		ldr	r3, [fp, #-16]
 2529 0854 070053E3 		cmp	r3, #7
 2530 0858 CFFFFFDA 		ble	.L53
 261:../reversi8_2019.c **** 
 262:../reversi8_2019.c ****         }
 263:../reversi8_2019.c ****     }
 264:../reversi8_2019.c ****     return 0;
 2531              		.loc 1 264 0 is_stmt 1
 2532 085c 0030A0E3 		mov	r3, #0
 265:../reversi8_2019.c **** }
 2533              		.loc 1 265 0
 2534 0860 0300A0E1 		mov	r0, r3
 2535 0864 0CD04BE2 		sub	sp, fp, #12
 2536 0868 00689DE8 		ldmfd	sp, {fp, sp, lr}
 2537 086c 1EFF2FE1 		bx	lr
 2538              	.L55:
 2539              		.align	2
 2540              	.L54:
 2541 0870 40000000 		.word	vSF
 2542 0874 48000000 		.word	vSC
 2543              		.cfi_endproc
 2544              	.LFE8:
 2546              		.align	2
 2547              		.global	elegir_mov
 2549              	elegir_mov:
 2550              	.LFB9:
 266:../reversi8_2019.c **** 
 267:../reversi8_2019.c **** /////////////////////////////////////////////////////////////////////////////////
 268:../reversi8_2019.c **** // Recorre el tablero comprobando en cada posición si se puede mover
 269:../reversi8_2019.c **** // En caso afirmativo, consulta la puntuación de la posición y si es la mejor
 270:../reversi8_2019.c **** // que se ha encontrado la guarda
 271:../reversi8_2019.c **** // Al acabar escribe el movimiento seleccionado en f y c
 272:../reversi8_2019.c **** 
 273:../reversi8_2019.c **** // Candidatas
 274:../reversi8_2019.c **** // NO    0
 275:../reversi8_2019.c **** // SI    1
 276:../reversi8_2019.c **** // CASILLA_OCUPADA 2
 277:../reversi8_2019.c **** int elegir_mov(uint8_t tablero[][DIM], uint8_t *f, uint8_t *c)
 278:../reversi8_2019.c **** {
 2551              		.loc 1 278 0
 2552              		.cfi_startproc
 2553              		@ Function supports interworking.
 2554              		@ args = 0, pretend = 0, frame = 56
 2555              		@ frame_needed = 1, uses_anonymous_args = 0
 2556 0878 0DC0A0E1 		mov	ip, sp
 2557              	.LCFI18:
 2558              		.cfi_def_cfa_register 12
 2559 087c 00D82DE9 		stmfd	sp!, {fp, ip, lr, pc}
 2560 0880 04B04CE2 		sub	fp, ip, #4
 2561              		.cfi_offset 14, -8
 2562              		.cfi_offset 13, -12
 2563              		.cfi_offset 11, -16
 2564              	.LCFI19:
 2565              		.cfi_def_cfa 11, 4
 2566 0884 48D04DE2 		sub	sp, sp, #72
 2567 0888 38000BE5 		str	r0, [fp, #-56]
 2568 088c 3C100BE5 		str	r1, [fp, #-60]
 2569 0890 40200BE5 		str	r2, [fp, #-64]
 279:../reversi8_2019.c ****     int i, j, k, found;
 280:../reversi8_2019.c ****     int mf = -1; // almacena la fila del mejor movimiento encontrado
 2570              		.loc 1 280 0
 2571 0894 0030E0E3 		mvn	r3, #0
 2572 0898 20300BE5 		str	r3, [fp, #-32]
 281:../reversi8_2019.c ****     int mc;      // almacena la columna del mejor movimiento encontrado
 282:../reversi8_2019.c ****     uint8_t mejor = 0; // almacena el mejor valor encontrado
 2573              		.loc 1 282 0
 2574 089c 0030A0E3 		mov	r3, #0
 2575 08a0 25304BE5 		strb	r3, [fp, #-37]
 283:../reversi8_2019.c ****     int patron, longitud;
 284:../reversi8_2019.c ****     uint8_t SF, SC; // cantidades a sumar para movernos en la dirección que toque
 285:../reversi8_2019.c **** 
 286:../reversi8_2019.c ****     // Recorremos el tablero comprobando dónde podemos mover
 287:../reversi8_2019.c ****     // Comparamos la puntuación de los movimientos encontrados y nos quedamos con el mejor
 288:../reversi8_2019.c ****     for (i=0; i<DIM; i++)
 2576              		.loc 1 288 0
 2577 08a4 0030A0E3 		mov	r3, #0
 2578 08a8 10300BE5 		str	r3, [fp, #-16]
 2579 08ac 640000EA 		b	.L57
 2580              	.L64:
 289:../reversi8_2019.c ****     {
 290:../reversi8_2019.c ****         for (j=0; j<DIM; j++)
 2581              		.loc 1 290 0
 2582 08b0 0030A0E3 		mov	r3, #0
 2583 08b4 14300BE5 		str	r3, [fp, #-20]
 2584 08b8 5B0000EA 		b	.L58
 2585              	.L63:
 291:../reversi8_2019.c ****         {   // indica en qué casillas quizá se pueda mover
 292:../reversi8_2019.c ****             if (candidatas[i][j] == SI)
 2586              		.loc 1 292 0
 2587 08bc C0219FE5 		ldr	r2, .L65
 2588 08c0 10301BE5 		ldr	r3, [fp, #-16]
 2589 08c4 8311A0E1 		mov	r1, r3, asl #3
 2590 08c8 14301BE5 		ldr	r3, [fp, #-20]
 2591 08cc 033081E0 		add	r3, r1, r3
 2592 08d0 033082E0 		add	r3, r2, r3
 2593 08d4 0030D3E5 		ldrb	r3, [r3, #0]	@ zero_extendqisi2
 2594 08d8 010053E3 		cmp	r3, #1
 2595 08dc 4F00001A 		bne	.L59
 293:../reversi8_2019.c ****             {
 294:../reversi8_2019.c ****                 if (tablero[i][j] == CASILLA_VACIA)
 2596              		.loc 1 294 0
 2597 08e0 10301BE5 		ldr	r3, [fp, #-16]
 2598 08e4 8331A0E1 		mov	r3, r3, asl #3
 2599 08e8 38201BE5 		ldr	r2, [fp, #-56]
 2600 08ec 032082E0 		add	r2, r2, r3
 2601 08f0 14301BE5 		ldr	r3, [fp, #-20]
 2602 08f4 033082E0 		add	r3, r2, r3
 2603 08f8 0030D3E5 		ldrb	r3, [r3, #0]	@ zero_extendqisi2
 2604 08fc 000053E3 		cmp	r3, #0
 2605 0900 4600001A 		bne	.L59
 295:../reversi8_2019.c ****                 {
 296:../reversi8_2019.c ****                     found = 0;
 2606              		.loc 1 296 0
 2607 0904 0030A0E3 		mov	r3, #0
 2608 0908 1C300BE5 		str	r3, [fp, #-28]
 297:../reversi8_2019.c ****                     k = 0;
 2609              		.loc 1 297 0
 2610 090c 0030A0E3 		mov	r3, #0
 2611 0910 18300BE5 		str	r3, [fp, #-24]
 298:../reversi8_2019.c **** 
 299:../reversi8_2019.c ****                     // en este bucle comprobamos si es un movimiento válido
 300:../reversi8_2019.c ****                     // (es decir si implica voltear en alguna dirección)
 301:../reversi8_2019.c ****                     while ((found == 0) && (k < DIM))
 2612              		.loc 1 301 0
 2613 0914 3B0000EA 		b	.L60
 2614              	.L62:
 302:../reversi8_2019.c ****                     {
 303:../reversi8_2019.c ****                         SF = vSF[k];    // k representa la dirección que miramos
 2615              		.loc 1 303 0
 2616 0918 68219FE5 		ldr	r2, .L65+4
 2617 091c 18301BE5 		ldr	r3, [fp, #-24]
 2618 0920 033082E0 		add	r3, r2, r3
 2619 0924 0030D3E5 		ldrb	r3, [r3, #0]	@ zero_extendqisi2
 2620 0928 26304BE5 		strb	r3, [fp, #-38]
 304:../reversi8_2019.c ****                         SC = vSC[k];    // 1 es norte, 2 NE, 3 E ...
 2621              		.loc 1 304 0
 2622 092c 58219FE5 		ldr	r2, .L65+8
 2623 0930 18301BE5 		ldr	r3, [fp, #-24]
 2624 0934 033082E0 		add	r3, r2, r3
 2625 0938 0030D3E5 		ldrb	r3, [r3, #0]	@ zero_extendqisi2
 2626 093c 27304BE5 		strb	r3, [fp, #-39]
 305:../reversi8_2019.c **** 
 306:../reversi8_2019.c ****                         // nos dice qué hay que voltear en cada dirección
 307:../reversi8_2019.c ****                         longitud = 0;
 2627              		.loc 1 307 0
 2628 0940 0030A0E3 		mov	r3, #0
 2629 0944 30300BE5 		str	r3, [fp, #-48]
 308:../reversi8_2019.c ****                         patron = patron_volteo(tablero, &longitud, i, j, SF, SC, FICHA_BLANCA);
 2630              		.loc 1 308 0
 2631 0948 10301BE5 		ldr	r3, [fp, #-16]
 2632 094c FF2003E2 		and	r2, r3, #255
 2633 0950 14301BE5 		ldr	r3, [fp, #-20]
 2634 0954 FF3003E2 		and	r3, r3, #255
 2635 0958 26C05BE5 		ldrb	ip, [fp, #-38]	@ zero_extendqisi2
 2636 095c 27005BE5 		ldrb	r0, [fp, #-39]	@ zero_extendqisi2
 2637 0960 30104BE2 		sub	r1, fp, #48
 2638 0964 0CCCA0E1 		mov	ip, ip, asl #24
 2639 0968 4CCCA0E1 		mov	ip, ip, asr #24
 2640 096c 00C08DE5 		str	ip, [sp, #0]
 2641 0970 000CA0E1 		mov	r0, r0, asl #24
 2642 0974 400CA0E1 		mov	r0, r0, asr #24
 2643 0978 04008DE5 		str	r0, [sp, #4]
 2644 097c 0100A0E3 		mov	r0, #1
 2645 0980 08008DE5 		str	r0, [sp, #8]
 2646 0984 38001BE5 		ldr	r0, [fp, #-56]
 2647 0988 FEFFFFEB 		bl	patron_volteo
 2648 098c 2C000BE5 		str	r0, [fp, #-44]
 309:../reversi8_2019.c ****                         if (patron == PATRON_ENCONTRADO)
 2649              		.loc 1 309 0
 2650 0990 2C301BE5 		ldr	r3, [fp, #-44]
 2651 0994 010053E3 		cmp	r3, #1
 2652 0998 1700001A 		bne	.L61
 310:../reversi8_2019.c ****                         {
 311:../reversi8_2019.c ****                             found = 1;
 2653              		.loc 1 311 0
 2654 099c 0130A0E3 		mov	r3, #1
 2655 09a0 1C300BE5 		str	r3, [fp, #-28]
 312:../reversi8_2019.c ****                             if (tabla_valor[i][j] > mejor)
 2656              		.loc 1 312 0
 2657 09a4 E4209FE5 		ldr	r2, .L65+12
 2658 09a8 10301BE5 		ldr	r3, [fp, #-16]
 2659 09ac 8311A0E1 		mov	r1, r3, asl #3
 2660 09b0 14301BE5 		ldr	r3, [fp, #-20]
 2661 09b4 033081E0 		add	r3, r1, r3
 2662 09b8 033082E0 		add	r3, r2, r3
 2663 09bc 0030D3E5 		ldrb	r3, [r3, #0]	@ zero_extendqisi2
 2664 09c0 25205BE5 		ldrb	r2, [fp, #-37]	@ zero_extendqisi2
 2665 09c4 030052E1 		cmp	r2, r3
 2666 09c8 0B00002A 		bcs	.L61
 313:../reversi8_2019.c ****                             {
 314:../reversi8_2019.c ****                                 mf = i;
 2667              		.loc 1 314 0
 2668 09cc 10301BE5 		ldr	r3, [fp, #-16]
 2669 09d0 20300BE5 		str	r3, [fp, #-32]
 315:../reversi8_2019.c ****                                 mc = j;
 2670              		.loc 1 315 0
 2671 09d4 14301BE5 		ldr	r3, [fp, #-20]
 2672 09d8 24300BE5 		str	r3, [fp, #-36]
 316:../reversi8_2019.c ****                                 mejor = tabla_valor[i][j];
 2673              		.loc 1 316 0
 2674 09dc AC209FE5 		ldr	r2, .L65+12
 2675 09e0 10301BE5 		ldr	r3, [fp, #-16]
 2676 09e4 8311A0E1 		mov	r1, r3, asl #3
 2677 09e8 14301BE5 		ldr	r3, [fp, #-20]
 2678 09ec 033081E0 		add	r3, r1, r3
 2679 09f0 033082E0 		add	r3, r2, r3
 2680 09f4 0030D3E5 		ldrb	r3, [r3, #0]
 2681 09f8 25304BE5 		strb	r3, [fp, #-37]
 2682              	.L61:
 317:../reversi8_2019.c ****                             }
 318:../reversi8_2019.c ****                         }
 319:../reversi8_2019.c ****                         k++;
 2683              		.loc 1 319 0
 2684 09fc 18301BE5 		ldr	r3, [fp, #-24]
 2685 0a00 013083E2 		add	r3, r3, #1
 2686 0a04 18300BE5 		str	r3, [fp, #-24]
 2687              	.L60:
 301:../reversi8_2019.c ****                     while ((found == 0) && (k < DIM))
 2688              		.loc 1 301 0 discriminator 1
 2689 0a08 1C301BE5 		ldr	r3, [fp, #-28]
 2690 0a0c 000053E3 		cmp	r3, #0
 2691 0a10 0200001A 		bne	.L59
 301:../reversi8_2019.c ****                     while ((found == 0) && (k < DIM))
 2692              		.loc 1 301 0 is_stmt 0 discriminator 2
 2693 0a14 18301BE5 		ldr	r3, [fp, #-24]
 2694 0a18 070053E3 		cmp	r3, #7
 2695 0a1c BDFFFFDA 		ble	.L62
 2696              	.L59:
 290:../reversi8_2019.c ****         for (j=0; j<DIM; j++)
 2697              		.loc 1 290 0 is_stmt 1
 2698 0a20 14301BE5 		ldr	r3, [fp, #-20]
 2699 0a24 013083E2 		add	r3, r3, #1
 2700 0a28 14300BE5 		str	r3, [fp, #-20]
 2701              	.L58:
 290:../reversi8_2019.c ****         for (j=0; j<DIM; j++)
 2702              		.loc 1 290 0 is_stmt 0 discriminator 1
 2703 0a2c 14301BE5 		ldr	r3, [fp, #-20]
 2704 0a30 070053E3 		cmp	r3, #7
 2705 0a34 A0FFFFDA 		ble	.L63
 288:../reversi8_2019.c ****     for (i=0; i<DIM; i++)
 2706              		.loc 1 288 0 is_stmt 1
 2707 0a38 10301BE5 		ldr	r3, [fp, #-16]
 2708 0a3c 013083E2 		add	r3, r3, #1
 2709 0a40 10300BE5 		str	r3, [fp, #-16]
 2710              	.L57:
 288:../reversi8_2019.c ****     for (i=0; i<DIM; i++)
 2711              		.loc 1 288 0 is_stmt 0 discriminator 1
 2712 0a44 10301BE5 		ldr	r3, [fp, #-16]
 2713 0a48 070053E3 		cmp	r3, #7
 2714 0a4c 97FFFFDA 		ble	.L64
 320:../reversi8_2019.c ****                         // si no hemos encontrado nada probamos con la siguiente dirección
 321:../reversi8_2019.c ****                     }
 322:../reversi8_2019.c ****                 }
 323:../reversi8_2019.c ****             }
 324:../reversi8_2019.c ****         }
 325:../reversi8_2019.c ****     }
 326:../reversi8_2019.c ****     *f = (uint8_t) mf;
 2715              		.loc 1 326 0 is_stmt 1
 2716 0a50 20301BE5 		ldr	r3, [fp, #-32]
 2717 0a54 FF2003E2 		and	r2, r3, #255
 2718 0a58 3C301BE5 		ldr	r3, [fp, #-60]
 2719 0a5c 0020C3E5 		strb	r2, [r3, #0]
 327:../reversi8_2019.c ****     *c = (uint8_t) mc;
 2720              		.loc 1 327 0
 2721 0a60 24301BE5 		ldr	r3, [fp, #-36]
 2722 0a64 FF2003E2 		and	r2, r3, #255
 2723 0a68 40301BE5 		ldr	r3, [fp, #-64]
 2724 0a6c 0020C3E5 		strb	r2, [r3, #0]
 328:../reversi8_2019.c ****     // si no se ha encontrado una posición válida devuelve -1
 329:../reversi8_2019.c ****     return mf;
 2725              		.loc 1 329 0
 2726 0a70 20301BE5 		ldr	r3, [fp, #-32]
 330:../reversi8_2019.c **** }
 2727              		.loc 1 330 0
 2728 0a74 0300A0E1 		mov	r0, r3
 2729 0a78 0CD04BE2 		sub	sp, fp, #12
 2730 0a7c 00689DE8 		ldmfd	sp, {fp, sp, lr}
 2731 0a80 1EFF2FE1 		bx	lr
 2732              	.L66:
 2733              		.align	2
 2734              	.L65:
 2735 0a84 00000000 		.word	candidatas
 2736 0a88 40000000 		.word	vSF
 2737 0a8c 48000000 		.word	vSC
 2738 0a90 00000000 		.word	tabla_valor
 2739              		.cfi_endproc
 2740              	.LFE9:
 2742              		.align	2
 2743              		.global	contar
 2745              	contar:
 2746              	.LFB10:
 331:../reversi8_2019.c **** ////////////////////////////////////////////////////////////////////////////////
 332:../reversi8_2019.c **** // Cuenta el número de fichas de cada color.
 333:../reversi8_2019.c **** // Los guarda en la dirección b (blancas) y n (negras)
 334:../reversi8_2019.c **** void contar(uint8_t tablero[][DIM], int *b, int *n)
 335:../reversi8_2019.c **** {
 2747              		.loc 1 335 0
 2748              		.cfi_startproc
 2749              		@ Function supports interworking.
 2750              		@ args = 0, pretend = 0, frame = 24
 2751              		@ frame_needed = 1, uses_anonymous_args = 0
 2752 0a94 0DC0A0E1 		mov	ip, sp
 2753              	.LCFI20:
 2754              		.cfi_def_cfa_register 12
 2755 0a98 00D82DE9 		stmfd	sp!, {fp, ip, lr, pc}
 2756 0a9c 04B04CE2 		sub	fp, ip, #4
 2757              		.cfi_offset 14, -8
 2758              		.cfi_offset 13, -12
 2759              		.cfi_offset 11, -16
 2760              	.LCFI21:
 2761              		.cfi_def_cfa 11, 4
 2762 0aa0 18D04DE2 		sub	sp, sp, #24
 2763 0aa4 18000BE5 		str	r0, [fp, #-24]
 2764 0aa8 1C100BE5 		str	r1, [fp, #-28]
 2765 0aac 20200BE5 		str	r2, [fp, #-32]
 336:../reversi8_2019.c ****     int i,j;
 337:../reversi8_2019.c **** 
 338:../reversi8_2019.c ****     *b = 0;
 2766              		.loc 1 338 0
 2767 0ab0 1C301BE5 		ldr	r3, [fp, #-28]
 2768 0ab4 0020A0E3 		mov	r2, #0
 2769 0ab8 002083E5 		str	r2, [r3, #0]
 339:../reversi8_2019.c ****     *n = 0;
 2770              		.loc 1 339 0
 2771 0abc 20301BE5 		ldr	r3, [fp, #-32]
 2772 0ac0 0020A0E3 		mov	r2, #0
 2773 0ac4 002083E5 		str	r2, [r3, #0]
 340:../reversi8_2019.c **** 
 341:../reversi8_2019.c ****     // recorremos  el tablero contando las fichas de cada color
 342:../reversi8_2019.c ****     for (i=0; i<DIM; i++)
 2774              		.loc 1 342 0
 2775 0ac8 0030A0E3 		mov	r3, #0
 2776 0acc 10300BE5 		str	r3, [fp, #-16]
 2777 0ad0 280000EA 		b	.L68
 2778              	.L73:
 343:../reversi8_2019.c ****     {
 344:../reversi8_2019.c ****         for (j=0; j<DIM; j++)
 2779              		.loc 1 344 0
 2780 0ad4 0030A0E3 		mov	r3, #0
 2781 0ad8 14300BE5 		str	r3, [fp, #-20]
 2782 0adc 1F0000EA 		b	.L69
 2783              	.L72:
 345:../reversi8_2019.c ****         {
 346:../reversi8_2019.c ****             if (tablero[i][j] == FICHA_BLANCA)
 2784              		.loc 1 346 0
 2785 0ae0 10301BE5 		ldr	r3, [fp, #-16]
 2786 0ae4 8331A0E1 		mov	r3, r3, asl #3
 2787 0ae8 18201BE5 		ldr	r2, [fp, #-24]
 2788 0aec 032082E0 		add	r2, r2, r3
 2789 0af0 14301BE5 		ldr	r3, [fp, #-20]
 2790 0af4 033082E0 		add	r3, r2, r3
 2791 0af8 0030D3E5 		ldrb	r3, [r3, #0]	@ zero_extendqisi2
 2792 0afc 010053E3 		cmp	r3, #1
 2793 0b00 0500001A 		bne	.L70
 347:../reversi8_2019.c ****             {
 348:../reversi8_2019.c ****                 (*b)++;
 2794              		.loc 1 348 0
 2795 0b04 1C301BE5 		ldr	r3, [fp, #-28]
 2796 0b08 003093E5 		ldr	r3, [r3, #0]
 2797 0b0c 012083E2 		add	r2, r3, #1
 2798 0b10 1C301BE5 		ldr	r3, [fp, #-28]
 2799 0b14 002083E5 		str	r2, [r3, #0]
 2800 0b18 0D0000EA 		b	.L71
 2801              	.L70:
 349:../reversi8_2019.c ****             }
 350:../reversi8_2019.c ****             else if (tablero[i][j] == FICHA_NEGRA)
 2802              		.loc 1 350 0
 2803 0b1c 10301BE5 		ldr	r3, [fp, #-16]
 2804 0b20 8331A0E1 		mov	r3, r3, asl #3
 2805 0b24 18201BE5 		ldr	r2, [fp, #-24]
 2806 0b28 032082E0 		add	r2, r2, r3
 2807 0b2c 14301BE5 		ldr	r3, [fp, #-20]
 2808 0b30 033082E0 		add	r3, r2, r3
 2809 0b34 0030D3E5 		ldrb	r3, [r3, #0]	@ zero_extendqisi2
 2810 0b38 020053E3 		cmp	r3, #2
 2811 0b3c 0400001A 		bne	.L71
 351:../reversi8_2019.c ****             {
 352:../reversi8_2019.c ****                 (*n)++;
 2812              		.loc 1 352 0
 2813 0b40 20301BE5 		ldr	r3, [fp, #-32]
 2814 0b44 003093E5 		ldr	r3, [r3, #0]
 2815 0b48 012083E2 		add	r2, r3, #1
 2816 0b4c 20301BE5 		ldr	r3, [fp, #-32]
 2817 0b50 002083E5 		str	r2, [r3, #0]
 2818              	.L71:
 344:../reversi8_2019.c ****         for (j=0; j<DIM; j++)
 2819              		.loc 1 344 0
 2820 0b54 14301BE5 		ldr	r3, [fp, #-20]
 2821 0b58 013083E2 		add	r3, r3, #1
 2822 0b5c 14300BE5 		str	r3, [fp, #-20]
 2823              	.L69:
 344:../reversi8_2019.c ****         for (j=0; j<DIM; j++)
 2824              		.loc 1 344 0 is_stmt 0 discriminator 1
 2825 0b60 14301BE5 		ldr	r3, [fp, #-20]
 2826 0b64 070053E3 		cmp	r3, #7
 2827 0b68 DCFFFFDA 		ble	.L72
 342:../reversi8_2019.c ****     for (i=0; i<DIM; i++)
 2828              		.loc 1 342 0 is_stmt 1
 2829 0b6c 10301BE5 		ldr	r3, [fp, #-16]
 2830 0b70 013083E2 		add	r3, r3, #1
 2831 0b74 10300BE5 		str	r3, [fp, #-16]
 2832              	.L68:
 342:../reversi8_2019.c ****     for (i=0; i<DIM; i++)
 2833              		.loc 1 342 0 is_stmt 0 discriminator 1
 2834 0b78 10301BE5 		ldr	r3, [fp, #-16]
 2835 0b7c 070053E3 		cmp	r3, #7
 2836 0b80 D3FFFFDA 		ble	.L73
 353:../reversi8_2019.c ****             }
 354:../reversi8_2019.c ****         }
 355:../reversi8_2019.c ****     }
 356:../reversi8_2019.c **** }
 2837              		.loc 1 356 0 is_stmt 1
 2838 0b84 0CD04BE2 		sub	sp, fp, #12
 2839 0b88 00689DE8 		ldmfd	sp, {fp, sp, lr}
 2840 0b8c 1EFF2FE1 		bx	lr
 2841              		.cfi_endproc
 2842              	.LFE10:
 2844              		.align	2
 2845              		.global	actualizar_candidatas
 2847              	actualizar_candidatas:
 2848              	.LFB11:
 357:../reversi8_2019.c **** 
 358:../reversi8_2019.c **** void actualizar_candidatas(uint8_t f, uint8_t c)
 359:../reversi8_2019.c **** {
 2849              		.loc 1 359 0
 2850              		.cfi_startproc
 2851              		@ Function supports interworking.
 2852              		@ args = 0, pretend = 0, frame = 8
 2853              		@ frame_needed = 1, uses_anonymous_args = 0
 2854 0b90 0DC0A0E1 		mov	ip, sp
 2855              	.LCFI22:
 2856              		.cfi_def_cfa_register 12
 2857 0b94 00D82DE9 		stmfd	sp!, {fp, ip, lr, pc}
 2858 0b98 04B04CE2 		sub	fp, ip, #4
 2859              		.cfi_offset 14, -8
 2860              		.cfi_offset 13, -12
 2861              		.cfi_offset 11, -16
 2862              	.LCFI23:
 2863              		.cfi_def_cfa 11, 4
 2864 0b9c 08D04DE2 		sub	sp, sp, #8
 2865 0ba0 0020A0E1 		mov	r2, r0
 2866 0ba4 0130A0E1 		mov	r3, r1
 2867 0ba8 0D204BE5 		strb	r2, [fp, #-13]
 2868 0bac 0E304BE5 		strb	r3, [fp, #-14]
 360:../reversi8_2019.c ****     // donde ya se ha colocado no se puede volver a colocar
 361:../reversi8_2019.c ****     // En las posiciones alrededor sí
 362:../reversi8_2019.c ****     candidatas[f][c] = CASILLA_OCUPADA;
 2869              		.loc 1 362 0
 2870 0bb0 0D105BE5 		ldrb	r1, [fp, #-13]	@ zero_extendqisi2
 2871 0bb4 0E305BE5 		ldrb	r3, [fp, #-14]	@ zero_extendqisi2
 2872 0bb8 FC229FE5 		ldr	r2, .L83
 2873 0bbc 8111A0E1 		mov	r1, r1, asl #3
 2874 0bc0 033081E0 		add	r3, r1, r3
 2875 0bc4 033082E0 		add	r3, r2, r3
 2876 0bc8 0220A0E3 		mov	r2, #2
 2877 0bcc 0020C3E5 		strb	r2, [r3, #0]
 363:../reversi8_2019.c ****     if (f > 0)
 2878              		.loc 1 363 0
 2879 0bd0 0D305BE5 		ldrb	r3, [fp, #-13]	@ zero_extendqisi2
 2880 0bd4 000053E3 		cmp	r3, #0
 2881 0bd8 4200000A 		beq	.L75
 364:../reversi8_2019.c ****     {
 365:../reversi8_2019.c ****         if (candidatas[f-1][c] != CASILLA_OCUPADA)
 2882              		.loc 1 365 0
 2883 0bdc 0D305BE5 		ldrb	r3, [fp, #-13]	@ zero_extendqisi2
 2884 0be0 011043E2 		sub	r1, r3, #1
 2885 0be4 0E305BE5 		ldrb	r3, [fp, #-14]	@ zero_extendqisi2
 2886 0be8 CC229FE5 		ldr	r2, .L83
 2887 0bec 8111A0E1 		mov	r1, r1, asl #3
 2888 0bf0 033081E0 		add	r3, r1, r3
 2889 0bf4 033082E0 		add	r3, r2, r3
 2890 0bf8 0030D3E5 		ldrb	r3, [r3, #0]	@ zero_extendqisi2
 2891 0bfc 020053E3 		cmp	r3, #2
 2892 0c00 0800000A 		beq	.L76
 366:../reversi8_2019.c ****             candidatas[f-1][c] = SI;
 2893              		.loc 1 366 0
 2894 0c04 0D305BE5 		ldrb	r3, [fp, #-13]	@ zero_extendqisi2
 2895 0c08 011043E2 		sub	r1, r3, #1
 2896 0c0c 0E305BE5 		ldrb	r3, [fp, #-14]	@ zero_extendqisi2
 2897 0c10 A4229FE5 		ldr	r2, .L83
 2898 0c14 8111A0E1 		mov	r1, r1, asl #3
 2899 0c18 033081E0 		add	r3, r1, r3
 2900 0c1c 033082E0 		add	r3, r2, r3
 2901 0c20 0120A0E3 		mov	r2, #1
 2902 0c24 0020C3E5 		strb	r2, [r3, #0]
 2903              	.L76:
 367:../reversi8_2019.c **** 
 368:../reversi8_2019.c ****         if ((c > 0) && (candidatas[f-1][c-1] != CASILLA_OCUPADA))
 2904              		.loc 1 368 0
 2905 0c28 0E305BE5 		ldrb	r3, [fp, #-14]	@ zero_extendqisi2
 2906 0c2c 000053E3 		cmp	r3, #0
 2907 0c30 1400000A 		beq	.L77
 2908              		.loc 1 368 0 is_stmt 0 discriminator 1
 2909 0c34 0D305BE5 		ldrb	r3, [fp, #-13]	@ zero_extendqisi2
 2910 0c38 011043E2 		sub	r1, r3, #1
 2911 0c3c 0E305BE5 		ldrb	r3, [fp, #-14]	@ zero_extendqisi2
 2912 0c40 013043E2 		sub	r3, r3, #1
 2913 0c44 70229FE5 		ldr	r2, .L83
 2914 0c48 8111A0E1 		mov	r1, r1, asl #3
 2915 0c4c 033081E0 		add	r3, r1, r3
 2916 0c50 033082E0 		add	r3, r2, r3
 2917 0c54 0030D3E5 		ldrb	r3, [r3, #0]	@ zero_extendqisi2
 2918 0c58 020053E3 		cmp	r3, #2
 2919 0c5c 0900000A 		beq	.L77
 369:../reversi8_2019.c ****             candidatas[f-1][c-1] = SI;
 2920              		.loc 1 369 0 is_stmt 1
 2921 0c60 0D305BE5 		ldrb	r3, [fp, #-13]	@ zero_extendqisi2
 2922 0c64 011043E2 		sub	r1, r3, #1
 2923 0c68 0E305BE5 		ldrb	r3, [fp, #-14]	@ zero_extendqisi2
 2924 0c6c 013043E2 		sub	r3, r3, #1
 2925 0c70 44229FE5 		ldr	r2, .L83
 2926 0c74 8111A0E1 		mov	r1, r1, asl #3
 2927 0c78 033081E0 		add	r3, r1, r3
 2928 0c7c 033082E0 		add	r3, r2, r3
 2929 0c80 0120A0E3 		mov	r2, #1
 2930 0c84 0020C3E5 		strb	r2, [r3, #0]
 2931              	.L77:
 370:../reversi8_2019.c **** 
 371:../reversi8_2019.c ****         if ((c < 7) && (candidatas[f-1][c+1] != CASILLA_OCUPADA))
 2932              		.loc 1 371 0
 2933 0c88 0E305BE5 		ldrb	r3, [fp, #-14]	@ zero_extendqisi2
 2934 0c8c 060053E3 		cmp	r3, #6
 2935 0c90 1400008A 		bhi	.L75
 2936              		.loc 1 371 0 is_stmt 0 discriminator 1
 2937 0c94 0D305BE5 		ldrb	r3, [fp, #-13]	@ zero_extendqisi2
 2938 0c98 011043E2 		sub	r1, r3, #1
 2939 0c9c 0E305BE5 		ldrb	r3, [fp, #-14]	@ zero_extendqisi2
 2940 0ca0 013083E2 		add	r3, r3, #1
 2941 0ca4 10229FE5 		ldr	r2, .L83
 2942 0ca8 8111A0E1 		mov	r1, r1, asl #3
 2943 0cac 033081E0 		add	r3, r1, r3
 2944 0cb0 033082E0 		add	r3, r2, r3
 2945 0cb4 0030D3E5 		ldrb	r3, [r3, #0]	@ zero_extendqisi2
 2946 0cb8 020053E3 		cmp	r3, #2
 2947 0cbc 0900000A 		beq	.L75
 372:../reversi8_2019.c ****             candidatas[f-1][c+1] = SI;
 2948              		.loc 1 372 0 is_stmt 1
 2949 0cc0 0D305BE5 		ldrb	r3, [fp, #-13]	@ zero_extendqisi2
 2950 0cc4 011043E2 		sub	r1, r3, #1
 2951 0cc8 0E305BE5 		ldrb	r3, [fp, #-14]	@ zero_extendqisi2
 2952 0ccc 013083E2 		add	r3, r3, #1
 2953 0cd0 E4219FE5 		ldr	r2, .L83
 2954 0cd4 8111A0E1 		mov	r1, r1, asl #3
 2955 0cd8 033081E0 		add	r3, r1, r3
 2956 0cdc 033082E0 		add	r3, r2, r3
 2957 0ce0 0120A0E3 		mov	r2, #1
 2958 0ce4 0020C3E5 		strb	r2, [r3, #0]
 2959              	.L75:
 373:../reversi8_2019.c ****     }
 374:../reversi8_2019.c ****     if (f < 7)
 2960              		.loc 1 374 0
 2961 0ce8 0D305BE5 		ldrb	r3, [fp, #-13]	@ zero_extendqisi2
 2962 0cec 060053E3 		cmp	r3, #6
 2963 0cf0 4200008A 		bhi	.L78
 375:../reversi8_2019.c ****     {
 376:../reversi8_2019.c ****         if (candidatas[f+1][c] != CASILLA_OCUPADA)
 2964              		.loc 1 376 0
 2965 0cf4 0D305BE5 		ldrb	r3, [fp, #-13]	@ zero_extendqisi2
 2966 0cf8 011083E2 		add	r1, r3, #1
 2967 0cfc 0E305BE5 		ldrb	r3, [fp, #-14]	@ zero_extendqisi2
 2968 0d00 B4219FE5 		ldr	r2, .L83
 2969 0d04 8111A0E1 		mov	r1, r1, asl #3
 2970 0d08 033081E0 		add	r3, r1, r3
 2971 0d0c 033082E0 		add	r3, r2, r3
 2972 0d10 0030D3E5 		ldrb	r3, [r3, #0]	@ zero_extendqisi2
 2973 0d14 020053E3 		cmp	r3, #2
 2974 0d18 0800000A 		beq	.L79
 377:../reversi8_2019.c ****             candidatas[f+1][c] = SI;
 2975              		.loc 1 377 0
 2976 0d1c 0D305BE5 		ldrb	r3, [fp, #-13]	@ zero_extendqisi2
 2977 0d20 011083E2 		add	r1, r3, #1
 2978 0d24 0E305BE5 		ldrb	r3, [fp, #-14]	@ zero_extendqisi2
 2979 0d28 8C219FE5 		ldr	r2, .L83
 2980 0d2c 8111A0E1 		mov	r1, r1, asl #3
 2981 0d30 033081E0 		add	r3, r1, r3
 2982 0d34 033082E0 		add	r3, r2, r3
 2983 0d38 0120A0E3 		mov	r2, #1
 2984 0d3c 0020C3E5 		strb	r2, [r3, #0]
 2985              	.L79:
 378:../reversi8_2019.c **** 
 379:../reversi8_2019.c ****         if ((c > 0) && (candidatas[f+1][c-1] != CASILLA_OCUPADA))
 2986              		.loc 1 379 0
 2987 0d40 0E305BE5 		ldrb	r3, [fp, #-14]	@ zero_extendqisi2
 2988 0d44 000053E3 		cmp	r3, #0
 2989 0d48 1400000A 		beq	.L80
 2990              		.loc 1 379 0 is_stmt 0 discriminator 1
 2991 0d4c 0D305BE5 		ldrb	r3, [fp, #-13]	@ zero_extendqisi2
 2992 0d50 011083E2 		add	r1, r3, #1
 2993 0d54 0E305BE5 		ldrb	r3, [fp, #-14]	@ zero_extendqisi2
 2994 0d58 013043E2 		sub	r3, r3, #1
 2995 0d5c 58219FE5 		ldr	r2, .L83
 2996 0d60 8111A0E1 		mov	r1, r1, asl #3
 2997 0d64 033081E0 		add	r3, r1, r3
 2998 0d68 033082E0 		add	r3, r2, r3
 2999 0d6c 0030D3E5 		ldrb	r3, [r3, #0]	@ zero_extendqisi2
 3000 0d70 020053E3 		cmp	r3, #2
 3001 0d74 0900000A 		beq	.L80
 380:../reversi8_2019.c ****             candidatas[f+1][c-1] = SI;
 3002              		.loc 1 380 0 is_stmt 1
 3003 0d78 0D305BE5 		ldrb	r3, [fp, #-13]	@ zero_extendqisi2
 3004 0d7c 011083E2 		add	r1, r3, #1
 3005 0d80 0E305BE5 		ldrb	r3, [fp, #-14]	@ zero_extendqisi2
 3006 0d84 013043E2 		sub	r3, r3, #1
 3007 0d88 2C219FE5 		ldr	r2, .L83
 3008 0d8c 8111A0E1 		mov	r1, r1, asl #3
 3009 0d90 033081E0 		add	r3, r1, r3
 3010 0d94 033082E0 		add	r3, r2, r3
 3011 0d98 0120A0E3 		mov	r2, #1
 3012 0d9c 0020C3E5 		strb	r2, [r3, #0]
 3013              	.L80:
 381:../reversi8_2019.c **** 
 382:../reversi8_2019.c ****         if ((c < 7) && (candidatas[f+1][c+1] != CASILLA_OCUPADA))
 3014              		.loc 1 382 0
 3015 0da0 0E305BE5 		ldrb	r3, [fp, #-14]	@ zero_extendqisi2
 3016 0da4 060053E3 		cmp	r3, #6
 3017 0da8 1400008A 		bhi	.L78
 3018              		.loc 1 382 0 is_stmt 0 discriminator 1
 3019 0dac 0D305BE5 		ldrb	r3, [fp, #-13]	@ zero_extendqisi2
 3020 0db0 011083E2 		add	r1, r3, #1
 3021 0db4 0E305BE5 		ldrb	r3, [fp, #-14]	@ zero_extendqisi2
 3022 0db8 013083E2 		add	r3, r3, #1
 3023 0dbc F8209FE5 		ldr	r2, .L83
 3024 0dc0 8111A0E1 		mov	r1, r1, asl #3
 3025 0dc4 033081E0 		add	r3, r1, r3
 3026 0dc8 033082E0 		add	r3, r2, r3
 3027 0dcc 0030D3E5 		ldrb	r3, [r3, #0]	@ zero_extendqisi2
 3028 0dd0 020053E3 		cmp	r3, #2
 3029 0dd4 0900000A 		beq	.L78
 383:../reversi8_2019.c ****             candidatas[f+1][c+1] = SI;
 3030              		.loc 1 383 0 is_stmt 1
 3031 0dd8 0D305BE5 		ldrb	r3, [fp, #-13]	@ zero_extendqisi2
 3032 0ddc 011083E2 		add	r1, r3, #1
 3033 0de0 0E305BE5 		ldrb	r3, [fp, #-14]	@ zero_extendqisi2
 3034 0de4 013083E2 		add	r3, r3, #1
 3035 0de8 CC209FE5 		ldr	r2, .L83
 3036 0dec 8111A0E1 		mov	r1, r1, asl #3
 3037 0df0 033081E0 		add	r3, r1, r3
 3038 0df4 033082E0 		add	r3, r2, r3
 3039 0df8 0120A0E3 		mov	r2, #1
 3040 0dfc 0020C3E5 		strb	r2, [r3, #0]
 3041              	.L78:
 384:../reversi8_2019.c ****     }
 385:../reversi8_2019.c ****     if ((c > 0) && (candidatas[f][c-1] != CASILLA_OCUPADA))
 3042              		.loc 1 385 0
 3043 0e00 0E305BE5 		ldrb	r3, [fp, #-14]	@ zero_extendqisi2
 3044 0e04 000053E3 		cmp	r3, #0
 3045 0e08 1200000A 		beq	.L81
 3046              		.loc 1 385 0 is_stmt 0 discriminator 1
 3047 0e0c 0D105BE5 		ldrb	r1, [fp, #-13]	@ zero_extendqisi2
 3048 0e10 0E305BE5 		ldrb	r3, [fp, #-14]	@ zero_extendqisi2
 3049 0e14 013043E2 		sub	r3, r3, #1
 3050 0e18 9C209FE5 		ldr	r2, .L83
 3051 0e1c 8111A0E1 		mov	r1, r1, asl #3
 3052 0e20 033081E0 		add	r3, r1, r3
 3053 0e24 033082E0 		add	r3, r2, r3
 3054 0e28 0030D3E5 		ldrb	r3, [r3, #0]	@ zero_extendqisi2
 3055 0e2c 020053E3 		cmp	r3, #2
 3056 0e30 0800000A 		beq	.L81
 386:../reversi8_2019.c ****         candidatas[f][c-1] = SI;
 3057              		.loc 1 386 0 is_stmt 1
 3058 0e34 0D105BE5 		ldrb	r1, [fp, #-13]	@ zero_extendqisi2
 3059 0e38 0E305BE5 		ldrb	r3, [fp, #-14]	@ zero_extendqisi2
 3060 0e3c 013043E2 		sub	r3, r3, #1
 3061 0e40 74209FE5 		ldr	r2, .L83
 3062 0e44 8111A0E1 		mov	r1, r1, asl #3
 3063 0e48 033081E0 		add	r3, r1, r3
 3064 0e4c 033082E0 		add	r3, r2, r3
 3065 0e50 0120A0E3 		mov	r2, #1
 3066 0e54 0020C3E5 		strb	r2, [r3, #0]
 3067              	.L81:
 387:../reversi8_2019.c **** 
 388:../reversi8_2019.c ****     if ((c < 7) && (candidatas[f][c+1] != CASILLA_OCUPADA))
 3068              		.loc 1 388 0
 3069 0e58 0E305BE5 		ldrb	r3, [fp, #-14]	@ zero_extendqisi2
 3070 0e5c 060053E3 		cmp	r3, #6
 3071 0e60 1200008A 		bhi	.L74
 3072              		.loc 1 388 0 is_stmt 0 discriminator 1
 3073 0e64 0D105BE5 		ldrb	r1, [fp, #-13]	@ zero_extendqisi2
 3074 0e68 0E305BE5 		ldrb	r3, [fp, #-14]	@ zero_extendqisi2
 3075 0e6c 013083E2 		add	r3, r3, #1
 3076 0e70 44209FE5 		ldr	r2, .L83
 3077 0e74 8111A0E1 		mov	r1, r1, asl #3
 3078 0e78 033081E0 		add	r3, r1, r3
 3079 0e7c 033082E0 		add	r3, r2, r3
 3080 0e80 0030D3E5 		ldrb	r3, [r3, #0]	@ zero_extendqisi2
 3081 0e84 020053E3 		cmp	r3, #2
 3082 0e88 0800000A 		beq	.L74
 389:../reversi8_2019.c ****         candidatas[f][c+1] = SI;
 3083              		.loc 1 389 0 is_stmt 1
 3084 0e8c 0D105BE5 		ldrb	r1, [fp, #-13]	@ zero_extendqisi2
 3085 0e90 0E305BE5 		ldrb	r3, [fp, #-14]	@ zero_extendqisi2
 3086 0e94 013083E2 		add	r3, r3, #1
 3087 0e98 1C209FE5 		ldr	r2, .L83
 3088 0e9c 8111A0E1 		mov	r1, r1, asl #3
 3089 0ea0 033081E0 		add	r3, r1, r3
 3090 0ea4 033082E0 		add	r3, r2, r3
 3091 0ea8 0120A0E3 		mov	r2, #1
 3092 0eac 0020C3E5 		strb	r2, [r3, #0]
 3093              	.L74:
 390:../reversi8_2019.c **** }
 3094              		.loc 1 390 0
 3095 0eb0 0CD04BE2 		sub	sp, fp, #12
 3096 0eb4 00689DE8 		ldmfd	sp, {fp, sp, lr}
 3097 0eb8 1EFF2FE1 		bx	lr
 3098              	.L84:
 3099              		.align	2
 3100              	.L83:
 3101 0ebc 00000000 		.word	candidatas
 3102              		.cfi_endproc
 3103              	.LFE11:
 3105              		.align	2
 3106              		.global	reversi8
 3108              	reversi8:
 3109              	.LFB12:
 391:../reversi8_2019.c **** 
 392:../reversi8_2019.c **** 
 393:../reversi8_2019.c **** 
 394:../reversi8_2019.c **** 
 395:../reversi8_2019.c **** ////////////////////////////////////////////////////////////////////////////////
 396:../reversi8_2019.c **** // Proceso principal del juego
 397:../reversi8_2019.c **** // Utiliza el tablero,
 398:../reversi8_2019.c **** // y las direcciones en las que indica el jugador la fila y la columna
 399:../reversi8_2019.c **** // y la señal de ready que indica que se han actualizado fila y columna
 400:../reversi8_2019.c **** // tablero, fila, columna y ready son variables globales aunque deberían ser locales de reversi8,
 401:../reversi8_2019.c **** // la razón es que al meterlas en la pila no las pone juntas, y así jugar es más complicado.
 402:../reversi8_2019.c **** // en esta versión el humano lleva negras y la máquina blancas
 403:../reversi8_2019.c **** // no se comprueba que el humano mueva correctamente.
 404:../reversi8_2019.c **** // Sólo que la máquina realice un movimiento correcto.
 405:../reversi8_2019.c **** void reversi8()
 406:../reversi8_2019.c **** {
 3110              		.loc 1 406 0
 3111              		.cfi_startproc
 3112              		@ Function supports interworking.
 3113              		@ args = 0, pretend = 0, frame = 0
 3114              		@ frame_needed = 1, uses_anonymous_args = 0
 3115 0ec0 0DC0A0E1 		mov	ip, sp
 3116              	.LCFI24:
 3117              		.cfi_def_cfa_register 12
 3118 0ec4 00D82DE9 		stmfd	sp!, {fp, ip, lr, pc}
 3119 0ec8 04B04CE2 		sub	fp, ip, #4
 3120              		.cfi_offset 14, -8
 3121              		.cfi_offset 13, -12
 3122              		.cfi_offset 11, -16
 3123              	.LCFI25:
 3124              		.cfi_def_cfa 11, 4
 407:../reversi8_2019.c **** 
 408:../reversi8_2019.c **** 	 ////////////////////////////////////////////////////////////////////
 409:../reversi8_2019.c **** 	 // Tablero candidatas: se usa para no explorar todas las posiciones del tablero
 410:../reversi8_2019.c **** 	// sólo se exploran las que están alrededor de las fichas colocadas
 411:../reversi8_2019.c **** 	 ////////////////////////////////////////////////////////////////////
 412:../reversi8_2019.c ****     init_table(tablero);
 3125              		.loc 1 412 0
 3126 0ecc 34009FE5 		ldr	r0, .L86
 3127 0ed0 FEFFFFEB 		bl	init_table
 413:../reversi8_2019.c ****     init_cola();
 3128              		.loc 1 413 0
 3129 0ed4 FEFFFFEB 		bl	init_cola
 414:../reversi8_2019.c ****     tiempo_partida = 0;
 3130              		.loc 1 414 0
 3131 0ed8 2C309FE5 		ldr	r3, .L86+4
 3132 0edc 0020A0E3 		mov	r2, #0
 3133 0ee0 002083E5 		str	r2, [r3, #0]
 415:../reversi8_2019.c **** 	accesos_patron_volteo = 0;
 3134              		.loc 1 415 0
 3135 0ee4 24309FE5 		ldr	r3, .L86+8
 3136 0ee8 0020A0E3 		mov	r2, #0
 3137 0eec 002083E5 		str	r2, [r3, #0]
 416:../reversi8_2019.c **** 	tiempo_patron_volteo = 0;
 3138              		.loc 1 416 0
 3139 0ef0 1C309FE5 		ldr	r3, .L86+12
 3140 0ef4 0020A0E3 		mov	r2, #0
 3141 0ef8 002083E5 		str	r2, [r3, #0]
 417:../reversi8_2019.c **** 
 418:../reversi8_2019.c ****     //test();
 419:../reversi8_2019.c **** 	//analisis_tiempos();
 420:../reversi8_2019.c **** 
 421:../reversi8_2019.c **** }
 3142              		.loc 1 421 0
 3143 0efc 0CD04BE2 		sub	sp, fp, #12
 3144 0f00 00689DE8 		ldmfd	sp, {fp, sp, lr}
 3145 0f04 1EFF2FE1 		bx	lr
 3146              	.L87:
 3147              		.align	2
 3148              	.L86:
 3149 0f08 00000000 		.word	tablero
 3150 0f0c 00000000 		.word	tiempo_partida
 3151 0f10 00000000 		.word	accesos_patron_volteo
 3152 0f14 00000000 		.word	tiempo_patron_volteo
 3153              		.cfi_endproc
 3154              	.LFE12:
 3156              		.align	2
 3157              		.global	jugada_usuario
 3159              	jugada_usuario:
 3160              	.LFB13:
 422:../reversi8_2019.c **** 
 423:../reversi8_2019.c **** //Realiza la jugada deseada por el usuario en caso de que sea valida.
 424:../reversi8_2019.c **** int jugada_usuario(uint8_t fi, uint8_t co){
 3161              		.loc 1 424 0
 3162              		.cfi_startproc
 3163              		@ Function supports interworking.
 3164              		@ args = 0, pretend = 0, frame = 8
 3165              		@ frame_needed = 1, uses_anonymous_args = 0
 3166 0f18 0DC0A0E1 		mov	ip, sp
 3167              	.LCFI26:
 3168              		.cfi_def_cfa_register 12
 3169 0f1c 00D82DE9 		stmfd	sp!, {fp, ip, lr, pc}
 3170 0f20 04B04CE2 		sub	fp, ip, #4
 3171              		.cfi_offset 14, -8
 3172              		.cfi_offset 13, -12
 3173              		.cfi_offset 11, -16
 3174              	.LCFI27:
 3175              		.cfi_def_cfa 11, 4
 3176 0f24 08D04DE2 		sub	sp, sp, #8
 3177 0f28 0020A0E1 		mov	r2, r0
 3178 0f2c 0130A0E1 		mov	r3, r1
 3179 0f30 0D204BE5 		strb	r2, [fp, #-13]
 3180 0f34 0E304BE5 		strb	r3, [fp, #-14]
 425:../reversi8_2019.c **** 	 // si la fila o columna son 8 asumimos que el jugador no puede mover
 426:../reversi8_2019.c **** 	if (((fi) != DIM) && ((co) != DIM) && ficha_valida_juego(fi, co))
 3181              		.loc 1 426 0
 3182 0f38 0D305BE5 		ldrb	r3, [fp, #-13]	@ zero_extendqisi2
 3183 0f3c 080053E3 		cmp	r3, #8
 3184 0f40 1E00000A 		beq	.L89
 3185              		.loc 1 426 0 is_stmt 0 discriminator 1
 3186 0f44 0E305BE5 		ldrb	r3, [fp, #-14]	@ zero_extendqisi2
 3187 0f48 080053E3 		cmp	r3, #8
 3188 0f4c 1B00000A 		beq	.L89
 3189 0f50 0D205BE5 		ldrb	r2, [fp, #-13]	@ zero_extendqisi2
 3190 0f54 0E305BE5 		ldrb	r3, [fp, #-14]	@ zero_extendqisi2
 3191 0f58 0200A0E1 		mov	r0, r2
 3192 0f5c 0310A0E1 		mov	r1, r3
 3193 0f60 FEFFFFEB 		bl	ficha_valida_juego
 3194 0f64 0030A0E1 		mov	r3, r0
 3195 0f68 000053E3 		cmp	r3, #0
 3196 0f6c 1300000A 		beq	.L89
 427:../reversi8_2019.c **** 	{
 428:../reversi8_2019.c **** 		asignar_celda(fi,co, FICHA_NEGRA);
 3197              		.loc 1 428 0 is_stmt 1
 3198 0f70 0D205BE5 		ldrb	r2, [fp, #-13]	@ zero_extendqisi2
 3199 0f74 0E305BE5 		ldrb	r3, [fp, #-14]	@ zero_extendqisi2
 3200 0f78 0200A0E1 		mov	r0, r2
 3201 0f7c 0310A0E1 		mov	r1, r3
 3202 0f80 0220A0E3 		mov	r2, #2
 3203 0f84 FEFFFFEB 		bl	asignar_celda
 429:../reversi8_2019.c **** 		actualizar_tablero(tablero, fi, co, FICHA_NEGRA);
 3204              		.loc 1 429 0
 3205 0f88 0D205BE5 		ldrb	r2, [fp, #-13]	@ zero_extendqisi2
 3206 0f8c 0E305BE5 		ldrb	r3, [fp, #-14]	@ zero_extendqisi2
 3207 0f90 3C009FE5 		ldr	r0, .L91
 3208 0f94 0210A0E1 		mov	r1, r2
 3209 0f98 0320A0E1 		mov	r2, r3
 3210 0f9c 0230A0E3 		mov	r3, #2
 3211 0fa0 FEFFFFEB 		bl	actualizar_tablero
 430:../reversi8_2019.c **** 		actualizar_candidatas(fi, co);
 3212              		.loc 1 430 0
 3213 0fa4 0D205BE5 		ldrb	r2, [fp, #-13]	@ zero_extendqisi2
 3214 0fa8 0E305BE5 		ldrb	r3, [fp, #-14]	@ zero_extendqisi2
 3215 0fac 0200A0E1 		mov	r0, r2
 3216 0fb0 0310A0E1 		mov	r1, r3
 3217 0fb4 FEFFFFEB 		bl	actualizar_candidatas
 431:../reversi8_2019.c **** 		return 1;
 3218              		.loc 1 431 0
 3219 0fb8 0130A0E3 		mov	r3, #1
 3220 0fbc 000000EA 		b	.L90
 3221              	.L89:
 432:../reversi8_2019.c **** 	}
 433:../reversi8_2019.c **** 
 434:../reversi8_2019.c **** 	return 0;
 3222              		.loc 1 434 0
 3223 0fc0 0030A0E3 		mov	r3, #0
 3224              	.L90:
 435:../reversi8_2019.c **** }
 3225              		.loc 1 435 0
 3226 0fc4 0300A0E1 		mov	r0, r3
 3227 0fc8 0CD04BE2 		sub	sp, fp, #12
 3228 0fcc 00689DE8 		ldmfd	sp, {fp, sp, lr}
 3229 0fd0 1EFF2FE1 		bx	lr
 3230              	.L92:
 3231              		.align	2
 3232              	.L91:
 3233 0fd4 00000000 		.word	tablero
 3234              		.cfi_endproc
 3235              	.LFE13:
 3237              		.align	2
 3238              		.global	jugada_maquina
 3240              	jugada_maquina:
 3241              	.LFB14:
 436:../reversi8_2019.c **** 
 437:../reversi8_2019.c **** //Realiza la jugada correspondiente a la maquina.
 438:../reversi8_2019.c **** int jugada_maquina(){
 3242              		.loc 1 438 0
 3243              		.cfi_startproc
 3244              		@ Function supports interworking.
 3245              		@ args = 0, pretend = 0, frame = 8
 3246              		@ frame_needed = 1, uses_anonymous_args = 0
 3247 0fd8 0DC0A0E1 		mov	ip, sp
 3248              	.LCFI28:
 3249              		.cfi_def_cfa_register 12
 3250 0fdc 00D82DE9 		stmfd	sp!, {fp, ip, lr, pc}
 3251 0fe0 04B04CE2 		sub	fp, ip, #4
 3252              		.cfi_offset 14, -8
 3253              		.cfi_offset 13, -12
 3254              		.cfi_offset 11, -16
 3255              	.LCFI29:
 3256              		.cfi_def_cfa 11, 4
 3257 0fe4 08D04DE2 		sub	sp, sp, #8
 439:../reversi8_2019.c **** 	uint8_t f = 0;
 3258              		.loc 1 439 0
 3259 0fe8 0030A0E3 		mov	r3, #0
 3260 0fec 11304BE5 		strb	r3, [fp, #-17]
 440:../reversi8_2019.c **** 	uint8_t c = 0;
 3261              		.loc 1 440 0
 3262 0ff0 0030A0E3 		mov	r3, #0
 3263 0ff4 12304BE5 		strb	r3, [fp, #-18]
 441:../reversi8_2019.c **** 	int done = elegir_mov(tablero, &f, &c);
 3264              		.loc 1 441 0
 3265 0ff8 11204BE2 		sub	r2, fp, #17
 3266 0ffc 12304BE2 		sub	r3, fp, #18
 3267 1000 8C009FE5 		ldr	r0, .L96
 3268 1004 0210A0E1 		mov	r1, r2
 3269 1008 0320A0E1 		mov	r2, r3
 3270 100c FEFFFFEB 		bl	elegir_mov
 3271 1010 10000BE5 		str	r0, [fp, #-16]
 442:../reversi8_2019.c **** 	if (done == -1)
 3272              		.loc 1 442 0
 3273 1014 10301BE5 		ldr	r3, [fp, #-16]
 3274 1018 010073E3 		cmn	r3, #1
 3275 101c 0100001A 		bne	.L94
 443:../reversi8_2019.c ****             return 0;
 3276              		.loc 1 443 0
 3277 1020 0030A0E3 		mov	r3, #0
 3278 1024 160000EA 		b	.L95
 3279              	.L94:
 444:../reversi8_2019.c **** 	else
 445:../reversi8_2019.c **** 	{
 446:../reversi8_2019.c **** 		asignar_celda(f,c,FICHA_BLANCA);
 3280              		.loc 1 446 0
 3281 1028 11305BE5 		ldrb	r3, [fp, #-17]	@ zero_extendqisi2
 3282 102c 0320A0E1 		mov	r2, r3
 3283 1030 12305BE5 		ldrb	r3, [fp, #-18]	@ zero_extendqisi2
 3284 1034 0200A0E1 		mov	r0, r2
 3285 1038 0310A0E1 		mov	r1, r3
 3286 103c 0120A0E3 		mov	r2, #1
 3287 1040 FEFFFFEB 		bl	asignar_celda
 447:../reversi8_2019.c **** 		actualizar_tablero(tablero, f, c, FICHA_BLANCA);
 3288              		.loc 1 447 0
 3289 1044 11205BE5 		ldrb	r2, [fp, #-17]	@ zero_extendqisi2
 3290 1048 12305BE5 		ldrb	r3, [fp, #-18]	@ zero_extendqisi2
 3291 104c 40009FE5 		ldr	r0, .L96
 3292 1050 0210A0E1 		mov	r1, r2
 3293 1054 0320A0E1 		mov	r2, r3
 3294 1058 0130A0E3 		mov	r3, #1
 3295 105c FEFFFFEB 		bl	actualizar_tablero
 448:../reversi8_2019.c **** 		actualizar_candidatas(f, c);
 3296              		.loc 1 448 0
 3297 1060 11205BE5 		ldrb	r2, [fp, #-17]	@ zero_extendqisi2
 3298 1064 12305BE5 		ldrb	r3, [fp, #-18]	@ zero_extendqisi2
 3299 1068 0200A0E1 		mov	r0, r2
 3300 106c 0310A0E1 		mov	r1, r3
 3301 1070 FEFFFFEB 		bl	actualizar_candidatas
 449:../reversi8_2019.c **** 		push_debug(EVENTO_JUGADA,1);
 3302              		.loc 1 449 0
 3303 1074 EE00A0E3 		mov	r0, #238
 3304 1078 0110A0E3 		mov	r1, #1
 3305 107c FEFFFFEB 		bl	push_debug
 450:../reversi8_2019.c **** 		return 1;
 3306              		.loc 1 450 0
 3307 1080 0130A0E3 		mov	r3, #1
 3308              	.L95:
 451:../reversi8_2019.c **** 	}
 452:../reversi8_2019.c **** }
 3309              		.loc 1 452 0
 3310 1084 0300A0E1 		mov	r0, r3
 3311 1088 0CD04BE2 		sub	sp, fp, #12
 3312 108c 00689DE8 		ldmfd	sp, {fp, sp, lr}
 3313 1090 1EFF2FE1 		bx	lr
 3314              	.L97:
 3315              		.align	2
 3316              	.L96:
 3317 1094 00000000 		.word	tablero
 3318              		.cfi_endproc
 3319              	.LFE14:
 3321              		.align	2
 3322              		.global	jugar
 3324              	jugar:
 3325              	.LFB15:
 453:../reversi8_2019.c **** 
 454:../reversi8_2019.c **** 
 455:../reversi8_2019.c **** void jugar(uint8_t fi, uint8_t co){
 3326              		.loc 1 455 0
 3327              		.cfi_startproc
 3328              		@ Function supports interworking.
 3329              		@ args = 0, pretend = 0, frame = 16
 3330              		@ frame_needed = 1, uses_anonymous_args = 0
 3331 1098 0DC0A0E1 		mov	ip, sp
 3332              	.LCFI30:
 3333              		.cfi_def_cfa_register 12
 3334 109c 00D82DE9 		stmfd	sp!, {fp, ip, lr, pc}
 3335 10a0 04B04CE2 		sub	fp, ip, #4
 3336              		.cfi_offset 14, -8
 3337              		.cfi_offset 13, -12
 3338              		.cfi_offset 11, -16
 3339              	.LCFI31:
 3340              		.cfi_def_cfa 11, 4
 3341 10a4 10D04DE2 		sub	sp, sp, #16
 3342 10a8 0020A0E1 		mov	r2, r0
 3343 10ac 0130A0E1 		mov	r3, r1
 3344 10b0 15204BE5 		strb	r2, [fp, #-21]
 3345 10b4 16304BE5 		strb	r3, [fp, #-22]
 456:../reversi8_2019.c **** 	tiempo_patron_volteo = 0;
 3346              		.loc 1 456 0
 3347 10b8 F4309FE5 		ldr	r3, .L105
 3348 10bc 0020A0E3 		mov	r2, #0
 3349 10c0 002083E5 		str	r2, [r3, #0]
 457:../reversi8_2019.c **** 	accesos_patron_volteo = 0;
 3350              		.loc 1 457 0
 3351 10c4 EC309FE5 		ldr	r3, .L105+4
 3352 10c8 0020A0E3 		mov	r2, #0
 3353 10cc 002083E5 		str	r2, [r3, #0]
 458:../reversi8_2019.c **** 	if(!existe_jugada()){
 3354              		.loc 1 458 0
 3355 10d0 FEFFFFEB 		bl	existe_jugada
 3356 10d4 0030A0E1 		mov	r3, r0
 3357 10d8 000053E3 		cmp	r3, #0
 3358 10dc 1300001A 		bne	.L99
 459:../reversi8_2019.c **** 		if(!jugada_maquina()){										//ninguno puede mover
 3359              		.loc 1 459 0
 3360 10e0 FEFFFFEB 		bl	jugada_maquina
 3361 10e4 0030A0E1 		mov	r3, r0
 3362 10e8 000053E3 		cmp	r3, #0
 3363 10ec 1500001A 		bne	.L100
 460:../reversi8_2019.c **** 			contar(tablero, &blancas, &negras);
 3364              		.loc 1 460 0
 3365 10f0 C4009FE5 		ldr	r0, .L105+8
 3366 10f4 C4109FE5 		ldr	r1, .L105+12
 3367 10f8 C4209FE5 		ldr	r2, .L105+16
 3368 10fc FEFFFFEB 		bl	contar
 461:../reversi8_2019.c **** 			if(blancas < negras){
 3369              		.loc 1 461 0
 3370 1100 B8309FE5 		ldr	r3, .L105+12
 3371 1104 002093E5 		ldr	r2, [r3, #0]
 3372 1108 B4309FE5 		ldr	r3, .L105+16
 3373 110c 003093E5 		ldr	r3, [r3, #0]
 3374 1110 030052E1 		cmp	r2, r3
 3375 1114 020000AA 		bge	.L101
 462:../reversi8_2019.c **** 				evento_pantalla_producido(EVENTO_GANAN_NEGRAS);
 3376              		.loc 1 462 0
 3377 1118 3300A0E3 		mov	r0, #51
 3378 111c FEFFFFEB 		bl	evento_pantalla_producido
 3379 1120 080000EA 		b	.L100
 3380              	.L101:
 463:../reversi8_2019.c **** 			}else{
 464:../reversi8_2019.c **** 				evento_pantalla_producido(EVENTO_GANAN_BLANCAS);
 3381              		.loc 1 464 0
 3382 1124 2200A0E3 		mov	r0, #34
 3383 1128 FEFFFFEB 		bl	evento_pantalla_producido
 3384 112c 050000EA 		b	.L100
 3385              	.L99:
 465:../reversi8_2019.c **** 			}
 466:../reversi8_2019.c **** 		}
 467:../reversi8_2019.c **** 	} else {
 468:../reversi8_2019.c **** 		jugada_usuario(fi, co);										//Usuario puede mover
 3386              		.loc 1 468 0
 3387 1130 15205BE5 		ldrb	r2, [fp, #-21]	@ zero_extendqisi2
 3388 1134 16305BE5 		ldrb	r3, [fp, #-22]	@ zero_extendqisi2
 3389 1138 0200A0E1 		mov	r0, r2
 3390 113c 0310A0E1 		mov	r1, r3
 3391 1140 FEFFFFEB 		bl	jugada_usuario
 469:../reversi8_2019.c **** 		jugada_maquina();
 3392              		.loc 1 469 0
 3393 1144 FEFFFFEB 		bl	jugada_maquina
 3394              	.L100:
 470:../reversi8_2019.c **** 	}
 471:../reversi8_2019.c **** 
 472:../reversi8_2019.c **** 	int ganador;
 473:../reversi8_2019.c **** 	if(partida_terminada(&ganador)){
 3395              		.loc 1 473 0
 3396 1148 10304BE2 		sub	r3, fp, #16
 3397 114c 0300A0E1 		mov	r0, r3
 3398 1150 FEFFFFEB 		bl	partida_terminada
 3399 1154 0030A0E1 		mov	r3, r0
 3400 1158 000053E3 		cmp	r3, #0
 3401 115c 0800000A 		beq	.L102
 474:../reversi8_2019.c **** 		if(ganador == FICHA_BLANCA){
 3402              		.loc 1 474 0
 3403 1160 10301BE5 		ldr	r3, [fp, #-16]
 3404 1164 010053E3 		cmp	r3, #1
 3405 1168 0200001A 		bne	.L103
 475:../reversi8_2019.c **** 			evento_pantalla_producido(EVENTO_GANAN_BLANCAS);
 3406              		.loc 1 475 0
 3407 116c 2200A0E3 		mov	r0, #34
 3408 1170 FEFFFFEB 		bl	evento_pantalla_producido
 3409 1174 0B0000EA 		b	.L98
 3410              	.L103:
 476:../reversi8_2019.c **** 		}else{
 477:../reversi8_2019.c **** 			evento_pantalla_producido(EVENTO_GANAN_NEGRAS);
 3411              		.loc 1 477 0
 3412 1178 3300A0E3 		mov	r0, #51
 3413 117c FEFFFFEB 		bl	evento_pantalla_producido
 3414 1180 080000EA 		b	.L98
 3415              	.L102:
 478:../reversi8_2019.c **** 		}
 479:../reversi8_2019.c **** 	} else {
 480:../reversi8_2019.c **** 		actualizar_tablero_pantalla();
 3416              		.loc 1 480 0
 3417 1184 FEFFFFEB 		bl	actualizar_tablero_pantalla
 481:../reversi8_2019.c **** 		mostrar_profiling(tiempo_patron_volteo, accesos_patron_volteo, 1);
 3418              		.loc 1 481 0
 3419 1188 24309FE5 		ldr	r3, .L105
 3420 118c 002093E5 		ldr	r2, [r3, #0]
 3421 1190 20309FE5 		ldr	r3, .L105+4
 3422 1194 003093E5 		ldr	r3, [r3, #0]
 3423 1198 0200A0E1 		mov	r0, r2
 3424 119c 0310A0E1 		mov	r1, r3
 3425 11a0 0120A0E3 		mov	r2, #1
 3426 11a4 FEFFFFEB 		bl	mostrar_profiling
 3427              	.L98:
 482:../reversi8_2019.c **** 
 483:../reversi8_2019.c **** 	}
 484:../reversi8_2019.c **** }
 3428              		.loc 1 484 0
 3429 11a8 0CD04BE2 		sub	sp, fp, #12
 3430 11ac 00689DE8 		ldmfd	sp, {fp, sp, lr}
 3431 11b0 1EFF2FE1 		bx	lr
 3432              	.L106:
 3433              		.align	2
 3434              	.L105:
 3435 11b4 00000000 		.word	tiempo_patron_volteo
 3436 11b8 00000000 		.word	accesos_patron_volteo
 3437 11bc 00000000 		.word	tablero
 3438 11c0 00000000 		.word	blancas
 3439 11c4 00000000 		.word	negras
 3440              		.cfi_endproc
 3441              	.LFE15:
 3443              		.align	2
 3444              		.global	existe_jugada
 3446              	existe_jugada:
 3447              	.LFB16:
 485:../reversi8_2019.c **** 
 486:../reversi8_2019.c **** int existe_jugada(){
 3448              		.loc 1 486 0
 3449              		.cfi_startproc
 3450              		@ Function supports interworking.
 3451              		@ args = 0, pretend = 0, frame = 8
 3452              		@ frame_needed = 1, uses_anonymous_args = 0
 3453 11c8 0DC0A0E1 		mov	ip, sp
 3454              	.LCFI32:
 3455              		.cfi_def_cfa_register 12
 3456 11cc 00D82DE9 		stmfd	sp!, {fp, ip, lr, pc}
 3457 11d0 04B04CE2 		sub	fp, ip, #4
 3458              		.cfi_offset 14, -8
 3459              		.cfi_offset 13, -12
 3460              		.cfi_offset 11, -16
 3461              	.LCFI33:
 3462              		.cfi_def_cfa 11, 4
 3463 11d4 08D04DE2 		sub	sp, sp, #8
 487:../reversi8_2019.c **** 	int i;
 488:../reversi8_2019.c **** 	int j;
 489:../reversi8_2019.c **** 	for(i = 0; i < DIM; i++){
 3464              		.loc 1 489 0
 3465 11d8 0030A0E3 		mov	r3, #0
 3466 11dc 10300BE5 		str	r3, [fp, #-16]
 3467 11e0 170000EA 		b	.L108
 3468              	.L113:
 490:../reversi8_2019.c **** 		for(j = 0; j < DIM; j++)
 3469              		.loc 1 490 0
 3470 11e4 0030A0E3 		mov	r3, #0
 3471 11e8 14300BE5 		str	r3, [fp, #-20]
 3472 11ec 0E0000EA 		b	.L109
 3473              	.L112:
 491:../reversi8_2019.c **** 			if (ficha_valida_juego(i, j))
 3474              		.loc 1 491 0
 3475 11f0 10301BE5 		ldr	r3, [fp, #-16]
 3476 11f4 FF2003E2 		and	r2, r3, #255
 3477 11f8 14301BE5 		ldr	r3, [fp, #-20]
 3478 11fc FF3003E2 		and	r3, r3, #255
 3479 1200 0200A0E1 		mov	r0, r2
 3480 1204 0310A0E1 		mov	r1, r3
 3481 1208 FEFFFFEB 		bl	ficha_valida_juego
 3482 120c 0030A0E1 		mov	r3, r0
 3483 1210 000053E3 		cmp	r3, #0
 3484 1214 0100000A 		beq	.L110
 492:../reversi8_2019.c **** 				return 1;
 3485              		.loc 1 492 0
 3486 1218 0130A0E3 		mov	r3, #1
 3487 121c 0C0000EA 		b	.L111
 3488              	.L110:
 490:../reversi8_2019.c **** 		for(j = 0; j < DIM; j++)
 3489              		.loc 1 490 0
 3490 1220 14301BE5 		ldr	r3, [fp, #-20]
 3491 1224 013083E2 		add	r3, r3, #1
 3492 1228 14300BE5 		str	r3, [fp, #-20]
 3493              	.L109:
 490:../reversi8_2019.c **** 		for(j = 0; j < DIM; j++)
 3494              		.loc 1 490 0 is_stmt 0 discriminator 1
 3495 122c 14301BE5 		ldr	r3, [fp, #-20]
 3496 1230 070053E3 		cmp	r3, #7
 3497 1234 EDFFFFDA 		ble	.L112
 489:../reversi8_2019.c **** 	for(i = 0; i < DIM; i++){
 3498              		.loc 1 489 0 is_stmt 1
 3499 1238 10301BE5 		ldr	r3, [fp, #-16]
 3500 123c 013083E2 		add	r3, r3, #1
 3501 1240 10300BE5 		str	r3, [fp, #-16]
 3502              	.L108:
 489:../reversi8_2019.c **** 	for(i = 0; i < DIM; i++){
 3503              		.loc 1 489 0 is_stmt 0 discriminator 1
 3504 1244 10301BE5 		ldr	r3, [fp, #-16]
 3505 1248 070053E3 		cmp	r3, #7
 3506 124c E4FFFFDA 		ble	.L113
 493:../reversi8_2019.c **** 	}
 494:../reversi8_2019.c **** 	return 0;
 3507              		.loc 1 494 0 is_stmt 1
 3508 1250 0030A0E3 		mov	r3, #0
 3509              	.L111:
 495:../reversi8_2019.c **** }
 3510              		.loc 1 495 0
 3511 1254 0300A0E1 		mov	r0, r3
 3512 1258 0CD04BE2 		sub	sp, fp, #12
 3513 125c 00689DE8 		ldmfd	sp, {fp, sp, lr}
 3514 1260 1EFF2FE1 		bx	lr
 3515              		.cfi_endproc
 3516              	.LFE16:
 3518              		.align	2
 3519              		.global	analisis_tiempos
 3521              	analisis_tiempos:
 3522              	.LFB17:
 496:../reversi8_2019.c **** 
 497:../reversi8_2019.c **** 
 498:../reversi8_2019.c **** //Obtiene los tiempos que les cuesta a las diferentes implementaciones de la función patron_volteo.
 499:../reversi8_2019.c **** void analisis_tiempos(){
 3523              		.loc 1 499 0
 3524              		.cfi_startproc
 3525              		@ Function supports interworking.
 3526              		@ args = 0, pretend = 0, frame = 56
 3527              		@ frame_needed = 1, uses_anonymous_args = 0
 3528 1264 0DC0A0E1 		mov	ip, sp
 3529              	.LCFI34:
 3530              		.cfi_def_cfa_register 12
 3531 1268 00D82DE9 		stmfd	sp!, {fp, ip, lr, pc}
 3532 126c 04B04CE2 		sub	fp, ip, #4
 3533              		.cfi_offset 14, -8
 3534              		.cfi_offset 13, -12
 3535              		.cfi_offset 11, -16
 3536              	.LCFI35:
 3537              		.cfi_def_cfa 11, 4
 3538 1270 48D04DE2 		sub	sp, sp, #72
 500:../reversi8_2019.c **** 	    int longitud = 0;
 3539              		.loc 1 500 0
 3540 1274 0030A0E3 		mov	r3, #0
 3541 1278 38300BE5 		str	r3, [fp, #-56]
 501:../reversi8_2019.c **** 		volatile int lectura_c_c = 0;
 3542              		.loc 1 501 0
 3543 127c 0030A0E3 		mov	r3, #0
 3544 1280 3C300BE5 		str	r3, [fp, #-60]
 502:../reversi8_2019.c **** 		volatile int lectura_arm_c = 0;
 3545              		.loc 1 502 0
 3546 1284 0030A0E3 		mov	r3, #0
 3547 1288 40300BE5 		str	r3, [fp, #-64]
 503:../reversi8_2019.c **** 		volatile int lectura_arm_arm = 0;
 3548              		.loc 1 503 0
 3549 128c 0030A0E3 		mov	r3, #0
 3550 1290 44300BE5 		str	r3, [fp, #-68]
 504:../reversi8_2019.c **** 	    int i = 0;
 3551              		.loc 1 504 0
 3552 1294 0030A0E3 		mov	r3, #0
 3553 1298 10300BE5 		str	r3, [fp, #-16]
 505:../reversi8_2019.c **** 		timer2_inicializar();
 3554              		.loc 1 505 0
 3555 129c FEFFFFEB 		bl	timer2_inicializar
 506:../reversi8_2019.c **** 		timer2_empezar();
 3556              		.loc 1 506 0
 3557 12a0 FEFFFFEB 		bl	timer2_empezar
 507:../reversi8_2019.c **** 		for (i = 0; i < DIM; i++){
 3558              		.loc 1 507 0
 3559 12a4 0030A0E3 		mov	r3, #0
 3560 12a8 10300BE5 		str	r3, [fp, #-16]
 3561 12ac 230000EA 		b	.L115
 3562              	.L116:
 3563              	.LBB2:
 508:../reversi8_2019.c **** 		        int SF = vSF[i];
 3564              		.loc 1 508 0 discriminator 2
 3565 12b0 18229FE5 		ldr	r2, .L121
 3566 12b4 10301BE5 		ldr	r3, [fp, #-16]
 3567 12b8 033082E0 		add	r3, r2, r3
 3568 12bc 0030D3E5 		ldrb	r3, [r3, #0]	@ zero_extendqisi2
 3569 12c0 033CA0E1 		mov	r3, r3, asl #24
 3570 12c4 433CA0E1 		mov	r3, r3, asr #24
 3571 12c8 14300BE5 		str	r3, [fp, #-20]
 509:../reversi8_2019.c **** 		        int SC = vSC[i];
 3572              		.loc 1 509 0 discriminator 2
 3573 12cc 00229FE5 		ldr	r2, .L121+4
 3574 12d0 10301BE5 		ldr	r3, [fp, #-16]
 3575 12d4 033082E0 		add	r3, r2, r3
 3576 12d8 0030D3E5 		ldrb	r3, [r3, #0]	@ zero_extendqisi2
 3577 12dc 033CA0E1 		mov	r3, r3, asl #24
 3578 12e0 433CA0E1 		mov	r3, r3, asr #24
 3579 12e4 18300BE5 		str	r3, [fp, #-24]
 510:../reversi8_2019.c **** 		        int patron = patron_volteo(tablero, &longitud, 2, 3, SF, SC, FICHA_NEGRA);
 3580              		.loc 1 510 0 discriminator 2
 3581 12e8 14301BE5 		ldr	r3, [fp, #-20]
 3582 12ec FF1003E2 		and	r1, r3, #255
 3583 12f0 18301BE5 		ldr	r3, [fp, #-24]
 3584 12f4 FF2003E2 		and	r2, r3, #255
 3585 12f8 38304BE2 		sub	r3, fp, #56
 3586 12fc 011CA0E1 		mov	r1, r1, asl #24
 3587 1300 411CA0E1 		mov	r1, r1, asr #24
 3588 1304 00108DE5 		str	r1, [sp, #0]
 3589 1308 022CA0E1 		mov	r2, r2, asl #24
 3590 130c 422CA0E1 		mov	r2, r2, asr #24
 3591 1310 04208DE5 		str	r2, [sp, #4]
 3592 1314 0220A0E3 		mov	r2, #2
 3593 1318 08208DE5 		str	r2, [sp, #8]
 3594 131c B4019FE5 		ldr	r0, .L121+8
 3595 1320 0310A0E1 		mov	r1, r3
 3596 1324 0220A0E3 		mov	r2, #2
 3597 1328 0330A0E3 		mov	r3, #3
 3598 132c FEFFFFEB 		bl	patron_volteo
 3599 1330 1C000BE5 		str	r0, [fp, #-28]
 3600              	.LBE2:
 507:../reversi8_2019.c **** 		for (i = 0; i < DIM; i++){
 3601              		.loc 1 507 0 discriminator 2
 3602 1334 10301BE5 		ldr	r3, [fp, #-16]
 3603 1338 013083E2 		add	r3, r3, #1
 3604 133c 10300BE5 		str	r3, [fp, #-16]
 3605              	.L115:
 507:../reversi8_2019.c **** 		for (i = 0; i < DIM; i++){
 3606              		.loc 1 507 0 is_stmt 0 discriminator 1
 3607 1340 10301BE5 		ldr	r3, [fp, #-16]
 3608 1344 070053E3 		cmp	r3, #7
 3609 1348 D8FFFFDA 		ble	.L116
 511:../reversi8_2019.c **** 		}
 512:../reversi8_2019.c **** 
 513:../reversi8_2019.c **** 		lectura_c_c = timer2_parar();
 3610              		.loc 1 513 0 is_stmt 1
 3611 134c FEFFFFEB 		bl	timer2_parar
 3612 1350 0030A0E1 		mov	r3, r0
 3613 1354 3C300BE5 		str	r3, [fp, #-60]
 514:../reversi8_2019.c **** 		Delay(lectura_c_c);
 3614              		.loc 1 514 0
 3615 1358 3C301BE5 		ldr	r3, [fp, #-60]
 3616 135c 0300A0E1 		mov	r0, r3
 3617 1360 FEFFFFEB 		bl	Delay
 515:../reversi8_2019.c **** 
 516:../reversi8_2019.c **** 		timer2_inicializar();
 3618              		.loc 1 516 0
 3619 1364 FEFFFFEB 		bl	timer2_inicializar
 517:../reversi8_2019.c **** 		timer2_empezar();
 3620              		.loc 1 517 0
 3621 1368 FEFFFFEB 		bl	timer2_empezar
 518:../reversi8_2019.c **** 		for (i = 0; i < DIM; i++){
 3622              		.loc 1 518 0
 3623 136c 0030A0E3 		mov	r3, #0
 3624 1370 10300BE5 		str	r3, [fp, #-16]
 3625 1374 1D0000EA 		b	.L117
 3626              	.L118:
 3627              	.LBB3:
 519:../reversi8_2019.c **** 				int SF = vSF[i];
 3628              		.loc 1 519 0 discriminator 2
 3629 1378 50219FE5 		ldr	r2, .L121
 3630 137c 10301BE5 		ldr	r3, [fp, #-16]
 3631 1380 033082E0 		add	r3, r2, r3
 3632 1384 0030D3E5 		ldrb	r3, [r3, #0]	@ zero_extendqisi2
 3633 1388 033CA0E1 		mov	r3, r3, asl #24
 3634 138c 433CA0E1 		mov	r3, r3, asr #24
 3635 1390 20300BE5 		str	r3, [fp, #-32]
 520:../reversi8_2019.c **** 				int SC = vSC[i];
 3636              		.loc 1 520 0 discriminator 2
 3637 1394 38219FE5 		ldr	r2, .L121+4
 3638 1398 10301BE5 		ldr	r3, [fp, #-16]
 3639 139c 033082E0 		add	r3, r2, r3
 3640 13a0 0030D3E5 		ldrb	r3, [r3, #0]	@ zero_extendqisi2
 3641 13a4 033CA0E1 		mov	r3, r3, asl #24
 3642 13a8 433CA0E1 		mov	r3, r3, asr #24
 3643 13ac 24300BE5 		str	r3, [fp, #-36]
 521:../reversi8_2019.c **** 				int patron = patron_volteo_arm_c(tablero, &longitud, 2, 3, SF, SC, FICHA_NEGRA);
 3644              		.loc 1 521 0 discriminator 2
 3645 13b0 38304BE2 		sub	r3, fp, #56
 3646 13b4 20201BE5 		ldr	r2, [fp, #-32]
 3647 13b8 00208DE5 		str	r2, [sp, #0]
 3648 13bc 24201BE5 		ldr	r2, [fp, #-36]
 3649 13c0 04208DE5 		str	r2, [sp, #4]
 3650 13c4 0220A0E3 		mov	r2, #2
 3651 13c8 08208DE5 		str	r2, [sp, #8]
 3652 13cc 04019FE5 		ldr	r0, .L121+8
 3653 13d0 0310A0E1 		mov	r1, r3
 3654 13d4 0220A0E3 		mov	r2, #2
 3655 13d8 0330A0E3 		mov	r3, #3
 3656 13dc FEFFFFEB 		bl	patron_volteo_arm_c
 3657 13e0 28000BE5 		str	r0, [fp, #-40]
 3658              	.LBE3:
 518:../reversi8_2019.c **** 		for (i = 0; i < DIM; i++){
 3659              		.loc 1 518 0 discriminator 2
 3660 13e4 10301BE5 		ldr	r3, [fp, #-16]
 3661 13e8 013083E2 		add	r3, r3, #1
 3662 13ec 10300BE5 		str	r3, [fp, #-16]
 3663              	.L117:
 518:../reversi8_2019.c **** 		for (i = 0; i < DIM; i++){
 3664              		.loc 1 518 0 is_stmt 0 discriminator 1
 3665 13f0 10301BE5 		ldr	r3, [fp, #-16]
 3666 13f4 070053E3 		cmp	r3, #7
 3667 13f8 DEFFFFDA 		ble	.L118
 522:../reversi8_2019.c **** 		}
 523:../reversi8_2019.c **** 		lectura_arm_c = timer2_parar();
 3668              		.loc 1 523 0 is_stmt 1
 3669 13fc FEFFFFEB 		bl	timer2_parar
 3670 1400 0030A0E1 		mov	r3, r0
 3671 1404 40300BE5 		str	r3, [fp, #-64]
 524:../reversi8_2019.c **** 		Delay(lectura_arm_c);
 3672              		.loc 1 524 0
 3673 1408 40301BE5 		ldr	r3, [fp, #-64]
 3674 140c 0300A0E1 		mov	r0, r3
 3675 1410 FEFFFFEB 		bl	Delay
 525:../reversi8_2019.c **** 
 526:../reversi8_2019.c **** 		timer2_inicializar();
 3676              		.loc 1 526 0
 3677 1414 FEFFFFEB 		bl	timer2_inicializar
 527:../reversi8_2019.c **** 		timer2_empezar();
 3678              		.loc 1 527 0
 3679 1418 FEFFFFEB 		bl	timer2_empezar
 528:../reversi8_2019.c **** 		for (i = 0; i < DIM; i++){
 3680              		.loc 1 528 0
 3681 141c 0030A0E3 		mov	r3, #0
 3682 1420 10300BE5 		str	r3, [fp, #-16]
 3683 1424 1D0000EA 		b	.L119
 3684              	.L120:
 3685              	.LBB4:
 529:../reversi8_2019.c **** 				int SF = vSF[i];
 3686              		.loc 1 529 0 discriminator 2
 3687 1428 A0209FE5 		ldr	r2, .L121
 3688 142c 10301BE5 		ldr	r3, [fp, #-16]
 3689 1430 033082E0 		add	r3, r2, r3
 3690 1434 0030D3E5 		ldrb	r3, [r3, #0]	@ zero_extendqisi2
 3691 1438 033CA0E1 		mov	r3, r3, asl #24
 3692 143c 433CA0E1 		mov	r3, r3, asr #24
 3693 1440 2C300BE5 		str	r3, [fp, #-44]
 530:../reversi8_2019.c **** 				int SC = vSC[i];
 3694              		.loc 1 530 0 discriminator 2
 3695 1444 88209FE5 		ldr	r2, .L121+4
 3696 1448 10301BE5 		ldr	r3, [fp, #-16]
 3697 144c 033082E0 		add	r3, r2, r3
 3698 1450 0030D3E5 		ldrb	r3, [r3, #0]	@ zero_extendqisi2
 3699 1454 033CA0E1 		mov	r3, r3, asl #24
 3700 1458 433CA0E1 		mov	r3, r3, asr #24
 3701 145c 30300BE5 		str	r3, [fp, #-48]
 531:../reversi8_2019.c **** 				int patron = patron_volteo_arm_arm(tablero, &longitud, 2, 3, SF, SC, FICHA_NEGRA);
 3702              		.loc 1 531 0 discriminator 2
 3703 1460 38304BE2 		sub	r3, fp, #56
 3704 1464 2C201BE5 		ldr	r2, [fp, #-44]
 3705 1468 00208DE5 		str	r2, [sp, #0]
 3706 146c 30201BE5 		ldr	r2, [fp, #-48]
 3707 1470 04208DE5 		str	r2, [sp, #4]
 3708 1474 0220A0E3 		mov	r2, #2
 3709 1478 08208DE5 		str	r2, [sp, #8]
 3710 147c 54009FE5 		ldr	r0, .L121+8
 3711 1480 0310A0E1 		mov	r1, r3
 3712 1484 0220A0E3 		mov	r2, #2
 3713 1488 0330A0E3 		mov	r3, #3
 3714 148c FEFFFFEB 		bl	patron_volteo_arm_arm
 3715 1490 34000BE5 		str	r0, [fp, #-52]
 3716              	.LBE4:
 528:../reversi8_2019.c **** 		for (i = 0; i < DIM; i++){
 3717              		.loc 1 528 0 discriminator 2
 3718 1494 10301BE5 		ldr	r3, [fp, #-16]
 3719 1498 013083E2 		add	r3, r3, #1
 3720 149c 10300BE5 		str	r3, [fp, #-16]
 3721              	.L119:
 528:../reversi8_2019.c **** 		for (i = 0; i < DIM; i++){
 3722              		.loc 1 528 0 is_stmt 0 discriminator 1
 3723 14a0 10301BE5 		ldr	r3, [fp, #-16]
 3724 14a4 070053E3 		cmp	r3, #7
 3725 14a8 DEFFFFDA 		ble	.L120
 532:../reversi8_2019.c **** 		}
 533:../reversi8_2019.c **** 		lectura_arm_arm = timer2_parar();
 3726              		.loc 1 533 0 is_stmt 1
 3727 14ac FEFFFFEB 		bl	timer2_parar
 3728 14b0 0030A0E1 		mov	r3, r0
 3729 14b4 44300BE5 		str	r3, [fp, #-68]
 534:../reversi8_2019.c **** 		Delay(lectura_arm_arm);
 3730              		.loc 1 534 0
 3731 14b8 44301BE5 		ldr	r3, [fp, #-68]
 3732 14bc 0300A0E1 		mov	r0, r3
 3733 14c0 FEFFFFEB 		bl	Delay
 535:../reversi8_2019.c **** 
 536:../reversi8_2019.c **** }
 3734              		.loc 1 536 0
 3735 14c4 0CD04BE2 		sub	sp, fp, #12
 3736 14c8 00689DE8 		ldmfd	sp, {fp, sp, lr}
 3737 14cc 1EFF2FE1 		bx	lr
 3738              	.L122:
 3739              		.align	2
 3740              	.L121:
 3741 14d0 40000000 		.word	vSF
 3742 14d4 48000000 		.word	vSC
 3743 14d8 00000000 		.word	tablero
 3744              		.cfi_endproc
 3745              	.LFE17:
 3747              		.align	2
 3748              		.global	hay_eventos_encolados
 3750              	hay_eventos_encolados:
 3751              	.LFB18:
 537:../reversi8_2019.c **** 
 538:../reversi8_2019.c **** // retorna 1 si hay eventos esperando a ser atendidos
 539:../reversi8_2019.c **** int hay_eventos_encolados(){
 3752              		.loc 1 539 0
 3753              		.cfi_startproc
 3754              		@ Function supports interworking.
 3755              		@ args = 0, pretend = 0, frame = 0
 3756              		@ frame_needed = 1, uses_anonymous_args = 0
 3757 14dc 0DC0A0E1 		mov	ip, sp
 3758              	.LCFI36:
 3759              		.cfi_def_cfa_register 12
 3760 14e0 00D82DE9 		stmfd	sp!, {fp, ip, lr, pc}
 3761 14e4 04B04CE2 		sub	fp, ip, #4
 3762              		.cfi_offset 14, -8
 3763              		.cfi_offset 13, -12
 3764              		.cfi_offset 11, -16
 3765              	.LCFI37:
 3766              		.cfi_def_cfa 11, 4
 540:../reversi8_2019.c **** 	return hayEventos();
 3767              		.loc 1 540 0
 3768 14e8 FEFFFFEB 		bl	hayEventos
 3769 14ec 0030A0E1 		mov	r3, r0
 541:../reversi8_2019.c **** }
 3770              		.loc 1 541 0
 3771 14f0 0300A0E1 		mov	r0, r3
 3772 14f4 0CD04BE2 		sub	sp, fp, #12
 3773 14f8 00689DE8 		ldmfd	sp, {fp, sp, lr}
 3774 14fc 1EFF2FE1 		bx	lr
 3775              		.cfi_endproc
 3776              	.LFE18:
 3778              		.align	2
 3779              		.global	dormir_procesador
 3781              	dormir_procesador:
 3782              	.LFB19:
 542:../reversi8_2019.c **** 
 543:../reversi8_2019.c **** 
 544:../reversi8_2019.c **** void dormir_procesador(){
 3783              		.loc 1 544 0
 3784              		.cfi_startproc
 3785              		@ Function supports interworking.
 3786              		@ args = 0, pretend = 0, frame = 0
 3787              		@ frame_needed = 1, uses_anonymous_args = 0
 3788 1500 0DC0A0E1 		mov	ip, sp
 3789              	.LCFI38:
 3790              		.cfi_def_cfa_register 12
 3791 1504 00D82DE9 		stmfd	sp!, {fp, ip, lr, pc}
 3792 1508 04B04CE2 		sub	fp, ip, #4
 3793              		.cfi_offset 14, -8
 3794              		.cfi_offset 13, -12
 3795              		.cfi_offset 11, -16
 3796              	.LCFI39:
 3797              		.cfi_def_cfa 11, 4
 545:../reversi8_2019.c **** 	//Delay(10);
 546:../reversi8_2019.c **** }
 3798              		.loc 1 546 0
 3799 150c 0CD04BE2 		sub	sp, fp, #12
 3800 1510 00689DE8 		ldmfd	sp, {fp, sp, lr}
 3801 1514 1EFF2FE1 		bx	lr
 3802              		.cfi_endproc
 3803              	.LFE19:
 3805              		.align	2
 3806              		.global	reversi_main
 3808              	reversi_main:
 3809              	.LFB20:
 547:../reversi8_2019.c **** 
 548:../reversi8_2019.c **** 
 549:../reversi8_2019.c **** void reversi_main(){
 3810              		.loc 1 549 0
 3811              		.cfi_startproc
 3812              		@ Function supports interworking.
 3813              		@ args = 0, pretend = 0, frame = 8
 3814              		@ frame_needed = 1, uses_anonymous_args = 0
 3815 1518 0DC0A0E1 		mov	ip, sp
 3816              	.LCFI40:
 3817              		.cfi_def_cfa_register 12
 3818 151c 00D82DE9 		stmfd	sp!, {fp, ip, lr, pc}
 3819 1520 04B04CE2 		sub	fp, ip, #4
 3820              		.cfi_offset 14, -8
 3821              		.cfi_offset 13, -12
 3822              		.cfi_offset 11, -16
 3823              	.LCFI41:
 3824              		.cfi_def_cfa 11, 4
 3825 1524 08D04DE2 		sub	sp, sp, #8
 550:../reversi8_2019.c **** 	reversi8();
 3826              		.loc 1 550 0
 3827 1528 FEFFFFEB 		bl	reversi8
 3828              	.LBB5:
 551:../reversi8_2019.c **** 	while (1) {
 552:../reversi8_2019.c **** 		int id_evento;
 553:../reversi8_2019.c **** 		while (hay_eventos_encolados()) {
 3829              		.loc 1 553 0
 3830 152c 330000EA 		b	.L126
 3831              	.L135:
 554:../reversi8_2019.c **** 			id_evento = tratar_evento();
 3832              		.loc 1 554 0
 3833 1530 FEFFFFEB 		bl	tratar_evento
 3834 1534 10000BE5 		str	r0, [fp, #-16]
 555:../reversi8_2019.c **** 			switch(id_evento){
 3835              		.loc 1 555 0
 3836 1538 10301BE5 		ldr	r3, [fp, #-16]
 3837 153c BB0053E3 		cmp	r3, #187
 3838 1540 1900000A 		beq	.L130
 3839 1544 BB0053E3 		cmp	r3, #187
 3840 1548 0B0000CA 		bgt	.L132
 3841 154c 440053E3 		cmp	r3, #68
 3842 1550 2800000A 		beq	.L128
 3843 1554 440053E3 		cmp	r3, #68
 3844 1558 020000CA 		bgt	.L133
 3845 155c 110053E3 		cmp	r3, #17
 3846 1560 1F00000A 		beq	.L127
 3847 1564 250000EA 		b	.L126
 3848              	.L133:
 3849 1568 550053E3 		cmp	r3, #85
 3850 156c 1100000A 		beq	.L129
 3851 1570 AB0053E3 		cmp	r3, #171
 3852 1574 1A00000A 		beq	.L127
 3853 1578 200000EA 		b	.L126
 3854              	.L132:
 3855 157c DB0053E3 		cmp	r3, #219
 3856 1580 1700000A 		beq	.L127
 3857 1584 DB0053E3 		cmp	r3, #219
 3858 1588 020000CA 		bgt	.L134
 3859 158c CC0053E3 		cmp	r3, #204
 3860 1590 0500000A 		beq	.L130
 3861 1594 190000EA 		b	.L126
 3862              	.L134:
 3863 1598 EE0053E3 		cmp	r3, #238
 3864 159c 1000000A 		beq	.L127
 3865 15a0 FF0053E3 		cmp	r3, #255
 3866 15a4 1100000A 		beq	.L131
 3867 15a8 140000EA 		b	.L126
 3868              	.L130:
 556:../reversi8_2019.c **** 				case EVENTO_ENCENDER_LATIDO:
 557:../reversi8_2019.c **** 				case EVENTO_APAGAR_LATIDO:
 558:../reversi8_2019.c **** 					latido_encender(id_evento);
 3869              		.loc 1 558 0
 3870 15ac 10001BE5 		ldr	r0, [fp, #-16]
 3871 15b0 FEFFFFEB 		bl	latido_encender
 559:../reversi8_2019.c **** 					break;
 3872              		.loc 1 559 0
 3873 15b4 110000EA 		b	.L126
 3874              	.L129:
 560:../reversi8_2019.c **** 				case EVENTO_SEGUNDO:
 561:../reversi8_2019.c **** 					tiempo_partida++;
 3875              		.loc 1 561 0
 3876 15b8 5C309FE5 		ldr	r3, .L137
 3877 15bc 003093E5 		ldr	r3, [r3, #0]
 3878 15c0 012083E2 		add	r2, r3, #1
 3879 15c4 50309FE5 		ldr	r3, .L137
 3880 15c8 002083E5 		str	r2, [r3, #0]
 562:../reversi8_2019.c **** 					actualizar_tiempo(tiempo_partida, 1);
 3881              		.loc 1 562 0
 3882 15cc 48309FE5 		ldr	r3, .L137
 3883 15d0 003093E5 		ldr	r3, [r3, #0]
 3884 15d4 0300A0E1 		mov	r0, r3
 3885 15d8 0110A0E3 		mov	r1, #1
 3886 15dc FEFFFFEB 		bl	actualizar_tiempo
 563:../reversi8_2019.c **** 					break;
 3887              		.loc 1 563 0
 3888 15e0 060000EA 		b	.L126
 3889              	.L127:
 564:../reversi8_2019.c **** 				case EVENTO_PULSACION_TACTIL:
 565:../reversi8_2019.c **** 				case EVENTO_IZ_BOTON_SOLTADO:
 566:../reversi8_2019.c **** 				case EVENTO_DR_BOTON_SOLTADO:
 567:../reversi8_2019.c **** 				case EVENTO_JUGADA:
 568:../reversi8_2019.c **** 						evento_pantalla_producido(id_evento);
 3890              		.loc 1 568 0
 3891 15e4 10001BE5 		ldr	r0, [fp, #-16]
 3892 15e8 FEFFFFEB 		bl	evento_pantalla_producido
 569:../reversi8_2019.c **** 					break;
 3893              		.loc 1 569 0
 3894 15ec 030000EA 		b	.L126
 3895              	.L131:
 570:../reversi8_2019.c **** 				case EVENTO_TICK_TIMER1:
 571:../reversi8_2019.c **** 					button_ev_tick1();
 3896              		.loc 1 571 0
 3897 15f0 FEFFFFEB 		bl	button_ev_tick1
 572:../reversi8_2019.c **** 					break;
 3898              		.loc 1 572 0
 3899 15f4 010000EA 		b	.L126
 3900              	.L128:
 573:../reversi8_2019.c **** 				case EVENTO_FINLCD:
 574:../reversi8_2019.c **** 					realizar_trabajo_encolado();
 3901              		.loc 1 574 0
 3902 15f8 FEFFFFEB 		bl	realizar_trabajo_encolado
 575:../reversi8_2019.c **** 					break;
 3903              		.loc 1 575 0
 3904 15fc 0000A0E1 		mov	r0, r0	@ nop
 3905              	.L126:
 553:../reversi8_2019.c **** 		while (hay_eventos_encolados()) {
 3906              		.loc 1 553 0 discriminator 1
 3907 1600 FEFFFFEB 		bl	hay_eventos_encolados
 3908 1604 0030A0E1 		mov	r3, r0
 3909 1608 000053E3 		cmp	r3, #0
 3910 160c C7FFFF1A 		bne	.L135
 576:../reversi8_2019.c **** 
 577:../reversi8_2019.c **** 			}
 578:../reversi8_2019.c **** 		}
 579:../reversi8_2019.c **** 		dormir_procesador();
 3911              		.loc 1 579 0
 3912 1610 FEFFFFEB 		bl	dormir_procesador
 3913              	.LBE5:
 580:../reversi8_2019.c **** 	}
 3914              		.loc 1 580 0
 3915 1614 0000A0E1 		mov	r0, r0	@ nop
 3916              	.LBB6:
 553:../reversi8_2019.c **** 		while (hay_eventos_encolados()) {
 3917              		.loc 1 553 0
 3918 1618 F8FFFFEA 		b	.L126
 3919              	.L138:
 3920              		.align	2
 3921              	.L137:
 3922 161c 00000000 		.word	tiempo_partida
 3923              	.LBE6:
 3924              		.cfi_endproc
 3925              	.LFE20:
 3927              		.align	2
 3928              		.global	test_patron_volteo
 3930              	test_patron_volteo:
 3931              	.LFB21:
 581:../reversi8_2019.c **** }
 582:../reversi8_2019.c **** 
 583:../reversi8_2019.c **** //Valida si todas las funciones de patron_volteo funcionan de forma correcta.
 584:../reversi8_2019.c **** int test_patron_volteo(){
 3932              		.loc 1 584 0
 3933              		.cfi_startproc
 3934              		@ Function supports interworking.
 3935              		@ args = 0, pretend = 0, frame = 120
 3936              		@ frame_needed = 1, uses_anonymous_args = 0
 3937 1620 0DC0A0E1 		mov	ip, sp
 3938              	.LCFI42:
 3939              		.cfi_def_cfa_register 12
 3940 1624 10D82DE9 		stmfd	sp!, {r4, fp, ip, lr, pc}
 3941 1628 04B04CE2 		sub	fp, ip, #4
 3942              		.cfi_offset 14, -8
 3943              		.cfi_offset 13, -12
 3944              		.cfi_offset 11, -16
 3945              		.cfi_offset 4, -20
 3946              	.LCFI43:
 3947              		.cfi_def_cfa 11, 4
 3948 162c 8CD04DE2 		sub	sp, sp, #140
 585:../reversi8_2019.c **** 	uint8_t __attribute__ ((aligned (8))) escenario_pruebas[DIM][DIM] = {
 3949              		.loc 1 585 0
 3950 1630 6C204BE2 		sub	r2, fp, #108
 3951 1634 4030A0E3 		mov	r3, #64
 3952 1638 0200A0E1 		mov	r0, r2
 3953 163c 0010A0E3 		mov	r1, #0
 3954 1640 0320A0E1 		mov	r2, r3
 3955 1644 FEFFFFEB 		bl	memset
 3956 1648 0130A0E3 		mov	r3, #1
 3957 164c 58304BE5 		strb	r3, [fp, #-88]
 3958 1650 0230A0E3 		mov	r3, #2
 3959 1654 52304BE5 		strb	r3, [fp, #-82]
 3960 1658 0230A0E3 		mov	r3, #2
 3961 165c 51304BE5 		strb	r3, [fp, #-81]
 3962 1660 0130A0E3 		mov	r3, #1
 3963 1664 50304BE5 		strb	r3, [fp, #-80]
 3964 1668 0230A0E3 		mov	r3, #2
 3965 166c 49304BE5 		strb	r3, [fp, #-73]
 3966 1670 0130A0E3 		mov	r3, #1
 3967 1674 48304BE5 		strb	r3, [fp, #-72]
 3968 1678 0230A0E3 		mov	r3, #2
 3969 167c 40304BE5 		strb	r3, [fp, #-64]
 3970 1680 0130A0E3 		mov	r3, #1
 3971 1684 3F304BE5 		strb	r3, [fp, #-63]
 586:../reversi8_2019.c **** 		        {CASILLA_VACIA,CASILLA_VACIA,CASILLA_VACIA,CASILLA_VACIA,CASILLA_VACIA,CASILLA_VACIA,CASI
 587:../reversi8_2019.c **** 		        {CASILLA_VACIA,CASILLA_VACIA,CASILLA_VACIA,CASILLA_VACIA,CASILLA_VACIA,CASILLA_VACIA,CASI
 588:../reversi8_2019.c **** 		        {CASILLA_VACIA,CASILLA_VACIA,CASILLA_VACIA,CASILLA_VACIA,/**/FICHA_BLANCA,CASILLA_VACIA,C
 589:../reversi8_2019.c **** 		        {CASILLA_VACIA,CASILLA_VACIA,/**/FICHA_NEGRA,/**/FICHA_NEGRA,/**/FICHA_BLANCA,CASILLA_VAC
 590:../reversi8_2019.c **** 		        {CASILLA_VACIA,CASILLA_VACIA,CASILLA_VACIA,/**/FICHA_NEGRA,/**/FICHA_BLANCA,CASILLA_VACIA
 591:../reversi8_2019.c **** 		        {CASILLA_VACIA,CASILLA_VACIA,CASILLA_VACIA,CASILLA_VACIA,/**/FICHA_NEGRA,/**/FICHA_BLANCA
 592:../reversi8_2019.c **** 		        {CASILLA_VACIA,CASILLA_VACIA,CASILLA_VACIA,CASILLA_VACIA,CASILLA_VACIA,CASILLA_VACIA,CASI
 593:../reversi8_2019.c **** 		        {CASILLA_VACIA,CASILLA_VACIA,CASILLA_VACIA,CASILLA_VACIA,CASILLA_VACIA,CASILLA_VACIA,CASI
 594:../reversi8_2019.c **** 		    };
 595:../reversi8_2019.c **** 
 596:../reversi8_2019.c **** 	enum { NUM_JUGADAS=8 };
 597:../reversi8_2019.c **** 
 598:../reversi8_2019.c **** 	const uint8_t fila_jugada[NUM_JUGADAS] = 	{1, 2, 3, 6, 6, 5, 3, 2 };
 3972              		.loc 1 598 0
 3973 1688 C0229FE5 		ldr	r2, .L147
 3974 168c 74304BE2 		sub	r3, fp, #116
 3975 1690 030092E8 		ldmia	r2, {r0, r1}
 3976 1694 030083E8 		stmia	r3, {r0, r1}
 599:../reversi8_2019.c **** 	uint8_t columnas_jugada[NUM_JUGADAS] = 	{4, 5, 5, 6, 4, 2, 1, 2 };
 3977              		.loc 1 599 0
 3978 1698 B4229FE5 		ldr	r2, .L147+4
 3979 169c 7C304BE2 		sub	r3, fp, #124
 3980 16a0 030092E8 		ldmia	r2, {r0, r1}
 3981 16a4 030083E8 		stmia	r3, {r0, r1}
 600:../reversi8_2019.c **** 	uint8_t colores[NUM_JUGADAS] = {FICHA_NEGRA, FICHA_NEGRA, FICHA_NEGRA, FICHA_NEGRA, FICHA_BLANCA, 
 3982              		.loc 1 600 0
 3983 16a8 A8229FE5 		ldr	r2, .L147+8
 3984 16ac 84304BE2 		sub	r3, fp, #132
 3985 16b0 030092E8 		ldmia	r2, {r0, r1}
 3986 16b4 030083E8 		stmia	r3, {r0, r1}
 601:../reversi8_2019.c **** 
 602:../reversi8_2019.c **** 
 603:../reversi8_2019.c **** 	int longitud = 0;
 3987              		.loc 1 603 0
 3988 16b8 0030A0E3 		mov	r3, #0
 3989 16bc 88300BE5 		str	r3, [fp, #-136]
 604:../reversi8_2019.c **** 	int i = 0;
 3990              		.loc 1 604 0
 3991 16c0 0030A0E3 		mov	r3, #0
 3992 16c4 18300BE5 		str	r3, [fp, #-24]
 605:../reversi8_2019.c **** 	int j = 0;
 3993              		.loc 1 605 0
 3994 16c8 0030A0E3 		mov	r3, #0
 3995 16cc 1C300BE5 		str	r3, [fp, #-28]
 606:../reversi8_2019.c **** 	int resultado = 0;
 3996              		.loc 1 606 0
 3997 16d0 0030A0E3 		mov	r3, #0
 3998 16d4 20300BE5 		str	r3, [fp, #-32]
 607:../reversi8_2019.c **** 	int resultado_arm = 0;
 3999              		.loc 1 607 0
 4000 16d8 0030A0E3 		mov	r3, #0
 4001 16dc 24300BE5 		str	r3, [fp, #-36]
 608:../reversi8_2019.c **** 	int resultado_arm_c = 0;
 4002              		.loc 1 608 0
 4003 16e0 0030A0E3 		mov	r3, #0
 4004 16e4 28300BE5 		str	r3, [fp, #-40]
 609:../reversi8_2019.c **** 
 610:../reversi8_2019.c **** 	for(i = 0; i < NUM_JUGADAS; i++){
 4005              		.loc 1 610 0
 4006 16e8 0030A0E3 		mov	r3, #0
 4007 16ec 18300BE5 		str	r3, [fp, #-24]
 4008 16f0 8E0000EA 		b	.L140
 4009              	.L146:
 611:../reversi8_2019.c **** 		for(j = 0; j < DIM; j++){
 4010              		.loc 1 611 0
 4011 16f4 0030A0E3 		mov	r3, #0
 4012 16f8 1C300BE5 		str	r3, [fp, #-28]
 4013 16fc 850000EA 		b	.L141
 4014              	.L145:
 4015              	.LBB7:
 612:../reversi8_2019.c **** 			longitud = 0;
 4016              		.loc 1 612 0
 4017 1700 0030A0E3 		mov	r3, #0
 4018 1704 88300BE5 		str	r3, [fp, #-136]
 613:../reversi8_2019.c **** 			resultado = patron_volteo(escenario_pruebas, &longitud, fila_jugada[i], columnas_jugada[i], vSF[
 4019              		.loc 1 613 0
 4020 1708 5F30E0E3 		mvn	r3, #95
 4021 170c 18201BE5 		ldr	r2, [fp, #-24]
 4022 1710 14004BE2 		sub	r0, fp, #20
 4023 1714 022080E0 		add	r2, r0, r2
 4024 1718 033082E0 		add	r3, r2, r3
 4025 171c 0020D3E5 		ldrb	r2, [r3, #0]	@ zero_extendqisi2
 4026 1720 6730E0E3 		mvn	r3, #103
 4027 1724 18101BE5 		ldr	r1, [fp, #-24]
 4028 1728 14C04BE2 		sub	ip, fp, #20
 4029 172c 01108CE0 		add	r1, ip, r1
 4030 1730 033081E0 		add	r3, r1, r3
 4031 1734 0030D3E5 		ldrb	r3, [r3, #0]	@ zero_extendqisi2
 4032 1738 1C029FE5 		ldr	r0, .L147+12
 4033 173c 1C101BE5 		ldr	r1, [fp, #-28]
 4034 1740 011080E0 		add	r1, r0, r1
 4035 1744 0040D1E5 		ldrb	r4, [r1, #0]	@ zero_extendqisi2
 4036 1748 10029FE5 		ldr	r0, .L147+16
 4037 174c 1C101BE5 		ldr	r1, [fp, #-28]
 4038 1750 011080E0 		add	r1, r0, r1
 4039 1754 00E0D1E5 		ldrb	lr, [r1, #0]	@ zero_extendqisi2
 4040 1758 6F10E0E3 		mvn	r1, #111
 4041 175c 18001BE5 		ldr	r0, [fp, #-24]
 4042 1760 14C04BE2 		sub	ip, fp, #20
 4043 1764 00008CE0 		add	r0, ip, r0
 4044 1768 011080E0 		add	r1, r0, r1
 4045 176c 00C0D1E5 		ldrb	ip, [r1, #0]	@ zero_extendqisi2
 4046 1770 6C004BE2 		sub	r0, fp, #108
 4047 1774 88104BE2 		sub	r1, fp, #136
 4048 1778 044CA0E1 		mov	r4, r4, asl #24
 4049 177c 444CA0E1 		mov	r4, r4, asr #24
 4050 1780 00408DE5 		str	r4, [sp, #0]
 4051 1784 0EECA0E1 		mov	lr, lr, asl #24
 4052 1788 4EECA0E1 		mov	lr, lr, asr #24
 4053 178c 04E08DE5 		str	lr, [sp, #4]
 4054 1790 08C08DE5 		str	ip, [sp, #8]
 4055 1794 FEFFFFEB 		bl	patron_volteo
 4056 1798 20000BE5 		str	r0, [fp, #-32]
 614:../reversi8_2019.c **** 			longitud = 0;
 4057              		.loc 1 614 0
 4058 179c 0030A0E3 		mov	r3, #0
 4059 17a0 88300BE5 		str	r3, [fp, #-136]
 615:../reversi8_2019.c **** 			resultado_arm_c = patron_volteo_arm_c(escenario_pruebas, &longitud, fila_jugada[i], columnas_jug
 4060              		.loc 1 615 0
 4061 17a4 5F30E0E3 		mvn	r3, #95
 4062 17a8 18201BE5 		ldr	r2, [fp, #-24]
 4063 17ac 14004BE2 		sub	r0, fp, #20
 4064 17b0 022080E0 		add	r2, r0, r2
 4065 17b4 033082E0 		add	r3, r2, r3
 4066 17b8 0030D3E5 		ldrb	r3, [r3, #0]	@ zero_extendqisi2
 4067 17bc 0320A0E1 		mov	r2, r3
 4068 17c0 6730E0E3 		mvn	r3, #103
 4069 17c4 18101BE5 		ldr	r1, [fp, #-24]
 4070 17c8 14C04BE2 		sub	ip, fp, #20
 4071 17cc 01108CE0 		add	r1, ip, r1
 4072 17d0 033081E0 		add	r3, r1, r3
 4073 17d4 0030D3E5 		ldrb	r3, [r3, #0]	@ zero_extendqisi2
 4074 17d8 7C019FE5 		ldr	r0, .L147+12
 4075 17dc 1C101BE5 		ldr	r1, [fp, #-28]
 4076 17e0 011080E0 		add	r1, r0, r1
 4077 17e4 0010D1E5 		ldrb	r1, [r1, #0]	@ zero_extendqisi2
 4078 17e8 011CA0E1 		mov	r1, r1, asl #24
 4079 17ec 414CA0E1 		mov	r4, r1, asr #24
 4080 17f0 68019FE5 		ldr	r0, .L147+16
 4081 17f4 1C101BE5 		ldr	r1, [fp, #-28]
 4082 17f8 011080E0 		add	r1, r0, r1
 4083 17fc 0010D1E5 		ldrb	r1, [r1, #0]	@ zero_extendqisi2
 4084 1800 011CA0E1 		mov	r1, r1, asl #24
 4085 1804 41ECA0E1 		mov	lr, r1, asr #24
 4086 1808 6F10E0E3 		mvn	r1, #111
 4087 180c 18001BE5 		ldr	r0, [fp, #-24]
 4088 1810 14C04BE2 		sub	ip, fp, #20
 4089 1814 00008CE0 		add	r0, ip, r0
 4090 1818 011080E0 		add	r1, r0, r1
 4091 181c 0010D1E5 		ldrb	r1, [r1, #0]	@ zero_extendqisi2
 4092 1820 01C0A0E1 		mov	ip, r1
 4093 1824 6C004BE2 		sub	r0, fp, #108
 4094 1828 88104BE2 		sub	r1, fp, #136
 4095 182c 00408DE5 		str	r4, [sp, #0]
 4096 1830 04E08DE5 		str	lr, [sp, #4]
 4097 1834 08C08DE5 		str	ip, [sp, #8]
 4098 1838 FEFFFFEB 		bl	patron_volteo_arm_c
 4099 183c 28000BE5 		str	r0, [fp, #-40]
 616:../reversi8_2019.c **** 			longitud = 0;
 4100              		.loc 1 616 0
 4101 1840 0030A0E3 		mov	r3, #0
 4102 1844 88300BE5 		str	r3, [fp, #-136]
 617:../reversi8_2019.c **** 			resultado_arm = patron_volteo_arm_arm(escenario_pruebas, &longitud, fila_jugada[i], columnas_jug
 4103              		.loc 1 617 0
 4104 1848 5F30E0E3 		mvn	r3, #95
 4105 184c 18201BE5 		ldr	r2, [fp, #-24]
 4106 1850 14004BE2 		sub	r0, fp, #20
 4107 1854 022080E0 		add	r2, r0, r2
 4108 1858 033082E0 		add	r3, r2, r3
 4109 185c 0030D3E5 		ldrb	r3, [r3, #0]	@ zero_extendqisi2
 4110 1860 0320A0E1 		mov	r2, r3
 4111 1864 6730E0E3 		mvn	r3, #103
 4112 1868 18101BE5 		ldr	r1, [fp, #-24]
 4113 186c 14C04BE2 		sub	ip, fp, #20
 4114 1870 01108CE0 		add	r1, ip, r1
 4115 1874 033081E0 		add	r3, r1, r3
 4116 1878 0030D3E5 		ldrb	r3, [r3, #0]	@ zero_extendqisi2
 4117 187c D8009FE5 		ldr	r0, .L147+12
 4118 1880 1C101BE5 		ldr	r1, [fp, #-28]
 4119 1884 011080E0 		add	r1, r0, r1
 4120 1888 0010D1E5 		ldrb	r1, [r1, #0]	@ zero_extendqisi2
 4121 188c 011CA0E1 		mov	r1, r1, asl #24
 4122 1890 414CA0E1 		mov	r4, r1, asr #24
 4123 1894 C4009FE5 		ldr	r0, .L147+16
 4124 1898 1C101BE5 		ldr	r1, [fp, #-28]
 4125 189c 011080E0 		add	r1, r0, r1
 4126 18a0 0010D1E5 		ldrb	r1, [r1, #0]	@ zero_extendqisi2
 4127 18a4 011CA0E1 		mov	r1, r1, asl #24
 4128 18a8 41ECA0E1 		mov	lr, r1, asr #24
 4129 18ac 6F10E0E3 		mvn	r1, #111
 4130 18b0 18001BE5 		ldr	r0, [fp, #-24]
 4131 18b4 14C04BE2 		sub	ip, fp, #20
 4132 18b8 00008CE0 		add	r0, ip, r0
 4133 18bc 011080E0 		add	r1, r0, r1
 4134 18c0 0010D1E5 		ldrb	r1, [r1, #0]	@ zero_extendqisi2
 4135 18c4 01C0A0E1 		mov	ip, r1
 4136 18c8 6C004BE2 		sub	r0, fp, #108
 4137 18cc 88104BE2 		sub	r1, fp, #136
 4138 18d0 00408DE5 		str	r4, [sp, #0]
 4139 18d4 04E08DE5 		str	lr, [sp, #4]
 4140 18d8 08C08DE5 		str	ip, [sp, #8]
 4141 18dc FEFFFFEB 		bl	patron_volteo_arm_arm
 4142 18e0 24000BE5 		str	r0, [fp, #-36]
 618:../reversi8_2019.c **** 			if(resultado != resultado_arm_c|| resultado != resultado_arm){
 4143              		.loc 1 618 0
 4144 18e4 20201BE5 		ldr	r2, [fp, #-32]
 4145 18e8 28301BE5 		ldr	r3, [fp, #-40]
 4146 18ec 030052E1 		cmp	r2, r3
 4147 18f0 0300001A 		bne	.L142
 4148              		.loc 1 618 0 is_stmt 0 discriminator 1
 4149 18f4 20201BE5 		ldr	r2, [fp, #-32]
 4150 18f8 24301BE5 		ldr	r3, [fp, #-36]
 4151 18fc 030052E1 		cmp	r2, r3
 4152 1900 0100000A 		beq	.L143
 4153              	.L142:
 619:../reversi8_2019.c **** 				return 0;
 4154              		.loc 1 619 0 is_stmt 1
 4155 1904 0030A0E3 		mov	r3, #0
 4156 1908 0C0000EA 		b	.L144
 4157              	.L143:
 4158              	.LBE7:
 611:../reversi8_2019.c **** 		for(j = 0; j < DIM; j++){
 4159              		.loc 1 611 0
 4160 190c 1C301BE5 		ldr	r3, [fp, #-28]
 4161 1910 013083E2 		add	r3, r3, #1
 4162 1914 1C300BE5 		str	r3, [fp, #-28]
 4163              	.L141:
 611:../reversi8_2019.c **** 		for(j = 0; j < DIM; j++){
 4164              		.loc 1 611 0 is_stmt 0 discriminator 1
 4165 1918 1C301BE5 		ldr	r3, [fp, #-28]
 4166 191c 070053E3 		cmp	r3, #7
 4167 1920 76FFFFDA 		ble	.L145
 610:../reversi8_2019.c **** 	for(i = 0; i < NUM_JUGADAS; i++){
 4168              		.loc 1 610 0 is_stmt 1
 4169 1924 18301BE5 		ldr	r3, [fp, #-24]
 4170 1928 013083E2 		add	r3, r3, #1
 4171 192c 18300BE5 		str	r3, [fp, #-24]
 4172              	.L140:
 610:../reversi8_2019.c **** 	for(i = 0; i < NUM_JUGADAS; i++){
 4173              		.loc 1 610 0 is_stmt 0 discriminator 1
 4174 1930 18301BE5 		ldr	r3, [fp, #-24]
 4175 1934 070053E3 		cmp	r3, #7
 4176 1938 6DFFFFDA 		ble	.L146
 620:../reversi8_2019.c **** 			}
 621:../reversi8_2019.c **** 		}
 622:../reversi8_2019.c **** 	}
 623:../reversi8_2019.c **** 	return 1;
 4177              		.loc 1 623 0 is_stmt 1
 4178 193c 0130A0E3 		mov	r3, #1
 4179              	.L144:
 624:../reversi8_2019.c **** }
 4180              		.loc 1 624 0
 4181 1940 0300A0E1 		mov	r0, r3
 4182 1944 10D04BE2 		sub	sp, fp, #16
 4183 1948 10689DE8 		ldmfd	sp, {r4, fp, sp, lr}
 4184 194c 1EFF2FE1 		bx	lr
 4185              	.L148:
 4186              		.align	2
 4187              	.L147:
 4188 1950 58000000 		.word	C.14.5624
 4189 1954 60000000 		.word	C.15.5625
 4190 1958 68000000 		.word	C.16.5626
 4191 195c 40000000 		.word	vSF
 4192 1960 48000000 		.word	vSC
 4193              		.cfi_endproc
 4194              	.LFE21:
 4196              		.align	2
 4197              		.global	partida_terminada
 4199              	partida_terminada:
 4200              	.LFB22:
 625:../reversi8_2019.c **** 
 626:../reversi8_2019.c **** int partida_terminada(int *ganador){
 4201              		.loc 1 626 0
 4202              		.cfi_startproc
 4203              		@ Function supports interworking.
 4204              		@ args = 0, pretend = 0, frame = 16
 4205              		@ frame_needed = 1, uses_anonymous_args = 0
 4206 1964 0DC0A0E1 		mov	ip, sp
 4207              	.LCFI44:
 4208              		.cfi_def_cfa_register 12
 4209 1968 00D82DE9 		stmfd	sp!, {fp, ip, lr, pc}
 4210 196c 04B04CE2 		sub	fp, ip, #4
 4211              		.cfi_offset 14, -8
 4212              		.cfi_offset 13, -12
 4213              		.cfi_offset 11, -16
 4214              	.LCFI45:
 4215              		.cfi_def_cfa 11, 4
 4216 1970 10D04DE2 		sub	sp, sp, #16
 4217 1974 18000BE5 		str	r0, [fp, #-24]
 627:../reversi8_2019.c **** 	int b, n;
 628:../reversi8_2019.c **** 	contar(tablero, &b, &n);
 4218              		.loc 1 628 0
 4219 1978 10204BE2 		sub	r2, fp, #16
 4220 197c 14304BE2 		sub	r3, fp, #20
 4221 1980 A4009FE5 		ldr	r0, .L157
 4222 1984 0210A0E1 		mov	r1, r2
 4223 1988 0320A0E1 		mov	r2, r3
 4224 198c FEFFFFEB 		bl	contar
 629:../reversi8_2019.c **** 	if(b + n == DIM*DIM || n == 0|| b == 0){
 4225              		.loc 1 629 0
 4226 1990 10201BE5 		ldr	r2, [fp, #-16]
 4227 1994 14301BE5 		ldr	r3, [fp, #-20]
 4228 1998 033082E0 		add	r3, r2, r3
 4229 199c 400053E3 		cmp	r3, #64
 4230 19a0 0500000A 		beq	.L150
 4231              		.loc 1 629 0 is_stmt 0 discriminator 1
 4232 19a4 14301BE5 		ldr	r3, [fp, #-20]
 4233 19a8 000053E3 		cmp	r3, #0
 4234 19ac 0200000A 		beq	.L150
 4235 19b0 10301BE5 		ldr	r3, [fp, #-16]
 4236 19b4 000053E3 		cmp	r3, #0
 4237 19b8 1600001A 		bne	.L151
 4238              	.L150:
 630:../reversi8_2019.c **** 		if(b > n || n == 0){
 4239              		.loc 1 630 0 is_stmt 1
 4240 19bc 10201BE5 		ldr	r2, [fp, #-16]
 4241 19c0 14301BE5 		ldr	r3, [fp, #-20]
 4242 19c4 030052E1 		cmp	r2, r3
 4243 19c8 020000CA 		bgt	.L152
 4244              		.loc 1 630 0 is_stmt 0 discriminator 1
 4245 19cc 14301BE5 		ldr	r3, [fp, #-20]
 4246 19d0 000053E3 		cmp	r3, #0
 4247 19d4 0300001A 		bne	.L153
 4248              	.L152:
 631:../reversi8_2019.c **** 			*ganador = FICHA_BLANCA;
 4249              		.loc 1 631 0 is_stmt 1
 4250 19d8 18301BE5 		ldr	r3, [fp, #-24]
 4251 19dc 0120A0E3 		mov	r2, #1
 4252 19e0 002083E5 		str	r2, [r3, #0]
 4253 19e4 090000EA 		b	.L154
 4254              	.L153:
 632:../reversi8_2019.c **** 		}else if (b < n || b == 0){
 4255              		.loc 1 632 0
 4256 19e8 10201BE5 		ldr	r2, [fp, #-16]
 4257 19ec 14301BE5 		ldr	r3, [fp, #-20]
 4258 19f0 030052E1 		cmp	r2, r3
 4259 19f4 020000BA 		blt	.L155
 4260              		.loc 1 632 0 is_stmt 0 discriminator 1
 4261 19f8 10301BE5 		ldr	r3, [fp, #-16]
 4262 19fc 000053E3 		cmp	r3, #0
 4263 1a00 0200001A 		bne	.L154
 4264              	.L155:
 633:../reversi8_2019.c **** 			*ganador = FICHA_NEGRA;
 4265              		.loc 1 633 0 is_stmt 1
 4266 1a04 18301BE5 		ldr	r3, [fp, #-24]
 4267 1a08 0220A0E3 		mov	r2, #2
 4268 1a0c 002083E5 		str	r2, [r3, #0]
 4269              	.L154:
 634:../reversi8_2019.c **** 		}
 635:../reversi8_2019.c **** 		return 1;
 4270              		.loc 1 635 0
 4271 1a10 0130A0E3 		mov	r3, #1
 4272 1a14 000000EA 		b	.L156
 4273              	.L151:
 636:../reversi8_2019.c **** 	}
 637:../reversi8_2019.c **** 	return 0;
 4274              		.loc 1 637 0
 4275 1a18 0030A0E3 		mov	r3, #0
 4276              	.L156:
 638:../reversi8_2019.c **** }
 4277              		.loc 1 638 0
 4278 1a1c 0300A0E1 		mov	r0, r3
 4279 1a20 0CD04BE2 		sub	sp, fp, #12
 4280 1a24 00689DE8 		ldmfd	sp, {fp, sp, lr}
 4281 1a28 1EFF2FE1 		bx	lr
 4282              	.L158:
 4283              		.align	2
 4284              	.L157:
 4285 1a2c 00000000 		.word	tablero
 4286              		.cfi_endproc
 4287              	.LFE22:
 4289              		.align	2
 4290              		.global	test
 4292              	test:
 4293              	.LFB23:
 639:../reversi8_2019.c **** 
 640:../reversi8_2019.c **** 
 641:../reversi8_2019.c **** //Comprueba el correcto funcionamiento del sistema realizado verificaciones sobre una bateria de ju
 642:../reversi8_2019.c **** int test(){
 4294              		.loc 1 642 0
 4295              		.cfi_startproc
 4296              		@ Function supports interworking.
 4297              		@ args = 0, pretend = 0, frame = 272
 4298              		@ frame_needed = 1, uses_anonymous_args = 0
 4299 1a30 0DC0A0E1 		mov	ip, sp
 4300              	.LCFI46:
 4301              		.cfi_def_cfa_register 12
 4302 1a34 00D82DE9 		stmfd	sp!, {fp, ip, lr, pc}
 4303 1a38 04B04CE2 		sub	fp, ip, #4
 4304              		.cfi_offset 14, -8
 4305              		.cfi_offset 13, -12
 4306              		.cfi_offset 11, -16
 4307              	.LCFI47:
 4308              		.cfi_def_cfa 11, 4
 4309 1a3c 11DE4DE2 		sub	sp, sp, #272
 643:../reversi8_2019.c **** 	uint8_t tableros_resueltos[NUM_JUGADAS][DIM][DIM];
 644:../reversi8_2019.c **** 	uint8_t fila_jugadas[] = {2, 3, 1, 3};
 4310              		.loc 1 644 0
 4311 1a40 BC309FE5 		ldr	r3, .L164
 4312 1a44 003093E5 		ldr	r3, [r3, #0]
 4313 1a48 14310BE5 		str	r3, [fp, #-276]
 645:../reversi8_2019.c **** 	uint8_t columna_jugadas[]={3, 2, 5, 5};
 4314              		.loc 1 645 0
 4315 1a4c B4309FE5 		ldr	r3, .L164+4
 4316 1a50 003093E5 		ldr	r3, [r3, #0]
 4317 1a54 18310BE5 		str	r3, [fp, #-280]
 646:../reversi8_2019.c **** 
 647:../reversi8_2019.c **** 
 648:../reversi8_2019.c **** 	obtener_tableros_resueltos(tableros_resueltos);
 4318              		.loc 1 648 0
 4319 1a58 113E4BE2 		sub	r3, fp, #272
 4320 1a5c 0300A0E1 		mov	r0, r3
 4321 1a60 FEFFFFEB 		bl	obtener_tableros_resueltos
 649:../reversi8_2019.c **** 
 650:../reversi8_2019.c **** 	int i = 0;
 4322              		.loc 1 650 0
 4323 1a64 0030A0E3 		mov	r3, #0
 4324 1a68 10300BE5 		str	r3, [fp, #-16]
 651:../reversi8_2019.c **** 	for(i = 0; i < NUM_JUGADAS; i++){
 4325              		.loc 1 651 0
 4326 1a6c 0030A0E3 		mov	r3, #0
 4327 1a70 10300BE5 		str	r3, [fp, #-16]
 4328 1a74 1A0000EA 		b	.L160
 4329              	.L163:
 652:../reversi8_2019.c **** 		jugar(fila_jugadas[i], columna_jugadas[i]);
 4330              		.loc 1 652 0
 4331 1a78 8C309FE5 		ldr	r3, .L164+8
 4332 1a7c 10201BE5 		ldr	r2, [fp, #-16]
 4333 1a80 0C004BE2 		sub	r0, fp, #12
 4334 1a84 022080E0 		add	r2, r0, r2
 4335 1a88 033082E0 		add	r3, r2, r3
 4336 1a8c 0020D3E5 		ldrb	r2, [r3, #0]	@ zero_extendqisi2
 4337 1a90 78309FE5 		ldr	r3, .L164+12
 4338 1a94 10101BE5 		ldr	r1, [fp, #-16]
 4339 1a98 0C004BE2 		sub	r0, fp, #12
 4340 1a9c 011080E0 		add	r1, r0, r1
 4341 1aa0 033081E0 		add	r3, r1, r3
 4342 1aa4 0030D3E5 		ldrb	r3, [r3, #0]	@ zero_extendqisi2
 4343 1aa8 0200A0E1 		mov	r0, r2
 4344 1aac 0310A0E1 		mov	r1, r3
 4345 1ab0 FEFFFFEB 		bl	jugar
 653:../reversi8_2019.c **** 		if (tableros_iguales(tablero, tableros_resueltos, i) == 0){
 4346              		.loc 1 653 0
 4347 1ab4 113E4BE2 		sub	r3, fp, #272
 4348 1ab8 54009FE5 		ldr	r0, .L164+16
 4349 1abc 0310A0E1 		mov	r1, r3
 4350 1ac0 10201BE5 		ldr	r2, [fp, #-16]
 4351 1ac4 FEFFFFEB 		bl	tableros_iguales
 4352 1ac8 0030A0E1 		mov	r3, r0
 4353 1acc 000053E3 		cmp	r3, #0
 4354 1ad0 0000001A 		bne	.L161
 4355              	.L162:
 654:../reversi8_2019.c **** 			while(1);
 4356              		.loc 1 654 0 discriminator 1
 4357 1ad4 FEFFFFEA 		b	.L162
 4358              	.L161:
 651:../reversi8_2019.c **** 	for(i = 0; i < NUM_JUGADAS; i++){
 4359              		.loc 1 651 0
 4360 1ad8 10301BE5 		ldr	r3, [fp, #-16]
 4361 1adc 013083E2 		add	r3, r3, #1
 4362 1ae0 10300BE5 		str	r3, [fp, #-16]
 4363              	.L160:
 651:../reversi8_2019.c **** 	for(i = 0; i < NUM_JUGADAS; i++){
 4364              		.loc 1 651 0 is_stmt 0 discriminator 1
 4365 1ae4 10301BE5 		ldr	r3, [fp, #-16]
 4366 1ae8 030053E3 		cmp	r3, #3
 4367 1aec E1FFFFDA 		ble	.L163
 655:../reversi8_2019.c **** 		}
 656:../reversi8_2019.c **** 	}
 657:../reversi8_2019.c **** 	return 1;
 4368              		.loc 1 657 0 is_stmt 1
 4369 1af0 0130A0E3 		mov	r3, #1
 658:../reversi8_2019.c **** }
 4370              		.loc 1 658 0
 4371 1af4 0300A0E1 		mov	r0, r3
 4372 1af8 0CD04BE2 		sub	sp, fp, #12
 4373 1afc 00689DE8 		ldmfd	sp, {fp, sp, lr}
 4374 1b00 1EFF2FE1 		bx	lr
 4375              	.L165:
 4376              		.align	2
 4377              	.L164:
 4378 1b04 50000000 		.word	C.2.5591
 4379 1b08 54000000 		.word	C.3.5592
 4380 1b0c F8FEFFFF 		.word	-264
 4381 1b10 F4FEFFFF 		.word	-268
 4382 1b14 00000000 		.word	tablero
 4383              		.cfi_endproc
 4384              	.LFE23:
 4386              		.align	2
 4387              		.global	tableros_iguales
 4389              	tableros_iguales:
 4390              	.LFB24:
 659:../reversi8_2019.c **** 
 660:../reversi8_2019.c **** //Retorna verdadero si un tableros es igual a otro tablero resuelto pasado como parametro
 661:../reversi8_2019.c **** int tableros_iguales(uint8_t tablero[DIM][DIM], uint8_t tableros_resueltos[4][DIM][DIM], int indice
 4391              		.loc 1 661 0
 4392              		.cfi_startproc
 4393              		@ Function supports interworking.
 4394              		@ args = 0, pretend = 0, frame = 24
 4395              		@ frame_needed = 1, uses_anonymous_args = 0
 4396 1b18 0DC0A0E1 		mov	ip, sp
 4397              	.LCFI48:
 4398              		.cfi_def_cfa_register 12
 4399 1b1c 00D82DE9 		stmfd	sp!, {fp, ip, lr, pc}
 4400 1b20 04B04CE2 		sub	fp, ip, #4
 4401              		.cfi_offset 14, -8
 4402              		.cfi_offset 13, -12
 4403              		.cfi_offset 11, -16
 4404              	.LCFI49:
 4405              		.cfi_def_cfa 11, 4
 4406 1b24 18D04DE2 		sub	sp, sp, #24
 4407 1b28 18000BE5 		str	r0, [fp, #-24]
 4408 1b2c 1C100BE5 		str	r1, [fp, #-28]
 4409 1b30 20200BE5 		str	r2, [fp, #-32]
 662:../reversi8_2019.c **** 	int i, j;
 663:../reversi8_2019.c **** 	for(i = 0; i < DIM; i++)
 4410              		.loc 1 663 0
 4411 1b34 0030A0E3 		mov	r3, #0
 4412 1b38 10300BE5 		str	r3, [fp, #-16]
 4413 1b3c 200000EA 		b	.L167
 4414              	.L172:
 664:../reversi8_2019.c **** 		for(j = 0; j < DIM; j++)
 4415              		.loc 1 664 0
 4416 1b40 0030A0E3 		mov	r3, #0
 4417 1b44 14300BE5 		str	r3, [fp, #-20]
 4418 1b48 170000EA 		b	.L168
 4419              	.L171:
 665:../reversi8_2019.c **** 			if(tablero[i][j] != tableros_resueltos[indice][i][j]){
 4420              		.loc 1 665 0
 4421 1b4c 10301BE5 		ldr	r3, [fp, #-16]
 4422 1b50 8331A0E1 		mov	r3, r3, asl #3
 4423 1b54 18201BE5 		ldr	r2, [fp, #-24]
 4424 1b58 032082E0 		add	r2, r2, r3
 4425 1b5c 14301BE5 		ldr	r3, [fp, #-20]
 4426 1b60 033082E0 		add	r3, r2, r3
 4427 1b64 0020D3E5 		ldrb	r2, [r3, #0]	@ zero_extendqisi2
 4428 1b68 20301BE5 		ldr	r3, [fp, #-32]
 4429 1b6c 0333A0E1 		mov	r3, r3, asl #6
 4430 1b70 1C101BE5 		ldr	r1, [fp, #-28]
 4431 1b74 031081E0 		add	r1, r1, r3
 4432 1b78 10301BE5 		ldr	r3, [fp, #-16]
 4433 1b7c 8301A0E1 		mov	r0, r3, asl #3
 4434 1b80 14301BE5 		ldr	r3, [fp, #-20]
 4435 1b84 033080E0 		add	r3, r0, r3
 4436 1b88 033081E0 		add	r3, r1, r3
 4437 1b8c 0030D3E5 		ldrb	r3, [r3, #0]	@ zero_extendqisi2
 4438 1b90 030052E1 		cmp	r2, r3
 4439 1b94 0100000A 		beq	.L169
 666:../reversi8_2019.c **** 				return 0;
 4440              		.loc 1 666 0
 4441 1b98 0030A0E3 		mov	r3, #0
 4442 1b9c 0C0000EA 		b	.L170
 4443              	.L169:
 664:../reversi8_2019.c **** 		for(j = 0; j < DIM; j++)
 4444              		.loc 1 664 0
 4445 1ba0 14301BE5 		ldr	r3, [fp, #-20]
 4446 1ba4 013083E2 		add	r3, r3, #1
 4447 1ba8 14300BE5 		str	r3, [fp, #-20]
 4448              	.L168:
 664:../reversi8_2019.c **** 		for(j = 0; j < DIM; j++)
 4449              		.loc 1 664 0 is_stmt 0 discriminator 1
 4450 1bac 14301BE5 		ldr	r3, [fp, #-20]
 4451 1bb0 070053E3 		cmp	r3, #7
 4452 1bb4 E4FFFFDA 		ble	.L171
 663:../reversi8_2019.c **** 	for(i = 0; i < DIM; i++)
 4453              		.loc 1 663 0 is_stmt 1
 4454 1bb8 10301BE5 		ldr	r3, [fp, #-16]
 4455 1bbc 013083E2 		add	r3, r3, #1
 4456 1bc0 10300BE5 		str	r3, [fp, #-16]
 4457              	.L167:
 663:../reversi8_2019.c **** 	for(i = 0; i < DIM; i++)
 4458              		.loc 1 663 0 is_stmt 0 discriminator 1
 4459 1bc4 10301BE5 		ldr	r3, [fp, #-16]
 4460 1bc8 070053E3 		cmp	r3, #7
 4461 1bcc DBFFFFDA 		ble	.L172
 667:../reversi8_2019.c **** 			}
 668:../reversi8_2019.c **** 	return 1;
 4462              		.loc 1 668 0 is_stmt 1
 4463 1bd0 0130A0E3 		mov	r3, #1
 4464              	.L170:
 669:../reversi8_2019.c **** }
 4465              		.loc 1 669 0
 4466 1bd4 0300A0E1 		mov	r0, r3
 4467 1bd8 0CD04BE2 		sub	sp, fp, #12
 4468 1bdc 00689DE8 		ldmfd	sp, {fp, sp, lr}
 4469 1be0 1EFF2FE1 		bx	lr
 4470              		.cfi_endproc
 4471              	.LFE24:
 4473              		.align	2
 4474              		.global	obtener_tableros_resueltos
 4476              	obtener_tableros_resueltos:
 4477              	.LFB25:
 670:../reversi8_2019.c **** 
 671:../reversi8_2019.c **** 
 672:../reversi8_2019.c **** 
 673:../reversi8_2019.c **** //Genera los tableros correctos correspondientes a 4 jugadas
 674:../reversi8_2019.c **** void obtener_tableros_resueltos(uint8_t tableros_resueltos[4][8][8]){
 4478              		.loc 1 674 0
 4479              		.cfi_startproc
 4480              		@ Function supports interworking.
 4481              		@ args = 0, pretend = 0, frame = 8
 4482              		@ frame_needed = 1, uses_anonymous_args = 0
 4483 1be4 0DC0A0E1 		mov	ip, sp
 4484              	.LCFI50:
 4485              		.cfi_def_cfa_register 12
 4486 1be8 00D82DE9 		stmfd	sp!, {fp, ip, lr, pc}
 4487 1bec 04B04CE2 		sub	fp, ip, #4
 4488              		.cfi_offset 14, -8
 4489              		.cfi_offset 13, -12
 4490              		.cfi_offset 11, -16
 4491              	.LCFI51:
 4492              		.cfi_def_cfa 11, 4
 4493 1bf0 08D04DE2 		sub	sp, sp, #8
 4494 1bf4 10000BE5 		str	r0, [fp, #-16]
 675:../reversi8_2019.c **** 	/*RESULTADO 1*/
 676:../reversi8_2019.c **** 
 677:../reversi8_2019.c **** 
 678:../reversi8_2019.c **** 	tableros_resueltos[0][0][0] = 0;
 4495              		.loc 1 678 0
 4496 1bf8 10301BE5 		ldr	r3, [fp, #-16]
 4497 1bfc 0020A0E3 		mov	r2, #0
 4498 1c00 0020C3E5 		strb	r2, [r3, #0]
 679:../reversi8_2019.c **** 	tableros_resueltos[0][0][1] = 0;
 4499              		.loc 1 679 0
 4500 1c04 10301BE5 		ldr	r3, [fp, #-16]
 4501 1c08 0020A0E3 		mov	r2, #0
 4502 1c0c 0120C3E5 		strb	r2, [r3, #1]
 680:../reversi8_2019.c **** 	tableros_resueltos[0][0][2] = 0;
 4503              		.loc 1 680 0
 4504 1c10 10301BE5 		ldr	r3, [fp, #-16]
 4505 1c14 0020A0E3 		mov	r2, #0
 4506 1c18 0220C3E5 		strb	r2, [r3, #2]
 681:../reversi8_2019.c **** 	tableros_resueltos[0][0][3] = 0;
 4507              		.loc 1 681 0
 4508 1c1c 10301BE5 		ldr	r3, [fp, #-16]
 4509 1c20 0020A0E3 		mov	r2, #0
 4510 1c24 0320C3E5 		strb	r2, [r3, #3]
 682:../reversi8_2019.c **** 	tableros_resueltos[0][0][4] = 0;
 4511              		.loc 1 682 0
 4512 1c28 10301BE5 		ldr	r3, [fp, #-16]
 4513 1c2c 0020A0E3 		mov	r2, #0
 4514 1c30 0420C3E5 		strb	r2, [r3, #4]
 683:../reversi8_2019.c **** 	tableros_resueltos[0][0][5] = 0;
 4515              		.loc 1 683 0
 4516 1c34 10301BE5 		ldr	r3, [fp, #-16]
 4517 1c38 0020A0E3 		mov	r2, #0
 4518 1c3c 0520C3E5 		strb	r2, [r3, #5]
 684:../reversi8_2019.c **** 	tableros_resueltos[0][0][6] = 0;
 4519              		.loc 1 684 0
 4520 1c40 10301BE5 		ldr	r3, [fp, #-16]
 4521 1c44 0020A0E3 		mov	r2, #0
 4522 1c48 0620C3E5 		strb	r2, [r3, #6]
 685:../reversi8_2019.c **** 	tableros_resueltos[0][0][7] = 0;
 4523              		.loc 1 685 0
 4524 1c4c 10301BE5 		ldr	r3, [fp, #-16]
 4525 1c50 0020A0E3 		mov	r2, #0
 4526 1c54 0720C3E5 		strb	r2, [r3, #7]
 686:../reversi8_2019.c **** 
 687:../reversi8_2019.c **** 	tableros_resueltos[0][1][0] = 0;
 4527              		.loc 1 687 0
 4528 1c58 10301BE5 		ldr	r3, [fp, #-16]
 4529 1c5c 0020A0E3 		mov	r2, #0
 4530 1c60 0820C3E5 		strb	r2, [r3, #8]
 688:../reversi8_2019.c **** 	tableros_resueltos[0][1][1] = 0;
 4531              		.loc 1 688 0
 4532 1c64 10301BE5 		ldr	r3, [fp, #-16]
 4533 1c68 0020A0E3 		mov	r2, #0
 4534 1c6c 0920C3E5 		strb	r2, [r3, #9]
 689:../reversi8_2019.c **** 	tableros_resueltos[0][1][2] = 0;
 4535              		.loc 1 689 0
 4536 1c70 10301BE5 		ldr	r3, [fp, #-16]
 4537 1c74 0020A0E3 		mov	r2, #0
 4538 1c78 0A20C3E5 		strb	r2, [r3, #10]
 690:../reversi8_2019.c **** 	tableros_resueltos[0][1][3] = 0;
 4539              		.loc 1 690 0
 4540 1c7c 10301BE5 		ldr	r3, [fp, #-16]
 4541 1c80 0020A0E3 		mov	r2, #0
 4542 1c84 0B20C3E5 		strb	r2, [r3, #11]
 691:../reversi8_2019.c **** 	tableros_resueltos[0][1][4] = 0;
 4543              		.loc 1 691 0
 4544 1c88 10301BE5 		ldr	r3, [fp, #-16]
 4545 1c8c 0020A0E3 		mov	r2, #0
 4546 1c90 0C20C3E5 		strb	r2, [r3, #12]
 692:../reversi8_2019.c **** 	tableros_resueltos[0][1][5] = 0;
 4547              		.loc 1 692 0
 4548 1c94 10301BE5 		ldr	r3, [fp, #-16]
 4549 1c98 0020A0E3 		mov	r2, #0
 4550 1c9c 0D20C3E5 		strb	r2, [r3, #13]
 693:../reversi8_2019.c **** 	tableros_resueltos[0][1][6] = 0;
 4551              		.loc 1 693 0
 4552 1ca0 10301BE5 		ldr	r3, [fp, #-16]
 4553 1ca4 0020A0E3 		mov	r2, #0
 4554 1ca8 0E20C3E5 		strb	r2, [r3, #14]
 694:../reversi8_2019.c **** 	tableros_resueltos[0][1][7] = 0;
 4555              		.loc 1 694 0
 4556 1cac 10301BE5 		ldr	r3, [fp, #-16]
 4557 1cb0 0020A0E3 		mov	r2, #0
 4558 1cb4 0F20C3E5 		strb	r2, [r3, #15]
 695:../reversi8_2019.c **** 
 696:../reversi8_2019.c **** 	tableros_resueltos[0][2][0] = 0;
 4559              		.loc 1 696 0
 4560 1cb8 10301BE5 		ldr	r3, [fp, #-16]
 4561 1cbc 0020A0E3 		mov	r2, #0
 4562 1cc0 1020C3E5 		strb	r2, [r3, #16]
 697:../reversi8_2019.c **** 	tableros_resueltos[0][2][1] = 0;
 4563              		.loc 1 697 0
 4564 1cc4 10301BE5 		ldr	r3, [fp, #-16]
 4565 1cc8 0020A0E3 		mov	r2, #0
 4566 1ccc 1120C3E5 		strb	r2, [r3, #17]
 698:../reversi8_2019.c **** 	tableros_resueltos[0][2][2] = 1;
 4567              		.loc 1 698 0
 4568 1cd0 10301BE5 		ldr	r3, [fp, #-16]
 4569 1cd4 0120A0E3 		mov	r2, #1
 4570 1cd8 1220C3E5 		strb	r2, [r3, #18]
 699:../reversi8_2019.c **** 	tableros_resueltos[0][2][3] = 2;
 4571              		.loc 1 699 0
 4572 1cdc 10301BE5 		ldr	r3, [fp, #-16]
 4573 1ce0 0220A0E3 		mov	r2, #2
 4574 1ce4 1320C3E5 		strb	r2, [r3, #19]
 700:../reversi8_2019.c **** 	tableros_resueltos[0][2][4] = 0;
 4575              		.loc 1 700 0
 4576 1ce8 10301BE5 		ldr	r3, [fp, #-16]
 4577 1cec 0020A0E3 		mov	r2, #0
 4578 1cf0 1420C3E5 		strb	r2, [r3, #20]
 701:../reversi8_2019.c **** 	tableros_resueltos[0][2][5] = 0;
 4579              		.loc 1 701 0
 4580 1cf4 10301BE5 		ldr	r3, [fp, #-16]
 4581 1cf8 0020A0E3 		mov	r2, #0
 4582 1cfc 1520C3E5 		strb	r2, [r3, #21]
 702:../reversi8_2019.c **** 	tableros_resueltos[0][2][6] = 0;
 4583              		.loc 1 702 0
 4584 1d00 10301BE5 		ldr	r3, [fp, #-16]
 4585 1d04 0020A0E3 		mov	r2, #0
 4586 1d08 1620C3E5 		strb	r2, [r3, #22]
 703:../reversi8_2019.c **** 	tableros_resueltos[0][2][7] = 0;
 4587              		.loc 1 703 0
 4588 1d0c 10301BE5 		ldr	r3, [fp, #-16]
 4589 1d10 0020A0E3 		mov	r2, #0
 4590 1d14 1720C3E5 		strb	r2, [r3, #23]
 704:../reversi8_2019.c **** 
 705:../reversi8_2019.c **** 
 706:../reversi8_2019.c **** 	tableros_resueltos[0][3][0] = 0;
 4591              		.loc 1 706 0
 4592 1d18 10301BE5 		ldr	r3, [fp, #-16]
 4593 1d1c 0020A0E3 		mov	r2, #0
 4594 1d20 1820C3E5 		strb	r2, [r3, #24]
 707:../reversi8_2019.c **** 	tableros_resueltos[0][3][1] = 0;
 4595              		.loc 1 707 0
 4596 1d24 10301BE5 		ldr	r3, [fp, #-16]
 4597 1d28 0020A0E3 		mov	r2, #0
 4598 1d2c 1920C3E5 		strb	r2, [r3, #25]
 708:../reversi8_2019.c **** 	tableros_resueltos[0][3][2] = 0;
 4599              		.loc 1 708 0
 4600 1d30 10301BE5 		ldr	r3, [fp, #-16]
 4601 1d34 0020A0E3 		mov	r2, #0
 4602 1d38 1A20C3E5 		strb	r2, [r3, #26]
 709:../reversi8_2019.c **** 	tableros_resueltos[0][3][3] = 1;
 4603              		.loc 1 709 0
 4604 1d3c 10301BE5 		ldr	r3, [fp, #-16]
 4605 1d40 0120A0E3 		mov	r2, #1
 4606 1d44 1B20C3E5 		strb	r2, [r3, #27]
 710:../reversi8_2019.c **** 	tableros_resueltos[0][3][4] = 2;
 4607              		.loc 1 710 0
 4608 1d48 10301BE5 		ldr	r3, [fp, #-16]
 4609 1d4c 0220A0E3 		mov	r2, #2
 4610 1d50 1C20C3E5 		strb	r2, [r3, #28]
 711:../reversi8_2019.c **** 	tableros_resueltos[0][3][5] = 0;
 4611              		.loc 1 711 0
 4612 1d54 10301BE5 		ldr	r3, [fp, #-16]
 4613 1d58 0020A0E3 		mov	r2, #0
 4614 1d5c 1D20C3E5 		strb	r2, [r3, #29]
 712:../reversi8_2019.c **** 	tableros_resueltos[0][3][6] = 0;
 4615              		.loc 1 712 0
 4616 1d60 10301BE5 		ldr	r3, [fp, #-16]
 4617 1d64 0020A0E3 		mov	r2, #0
 4618 1d68 1E20C3E5 		strb	r2, [r3, #30]
 713:../reversi8_2019.c **** 	tableros_resueltos[0][3][7] = 0;
 4619              		.loc 1 713 0
 4620 1d6c 10301BE5 		ldr	r3, [fp, #-16]
 4621 1d70 0020A0E3 		mov	r2, #0
 4622 1d74 1F20C3E5 		strb	r2, [r3, #31]
 714:../reversi8_2019.c **** 
 715:../reversi8_2019.c **** 	tableros_resueltos[0][4][0] = 0;
 4623              		.loc 1 715 0
 4624 1d78 10301BE5 		ldr	r3, [fp, #-16]
 4625 1d7c 0020A0E3 		mov	r2, #0
 4626 1d80 2020C3E5 		strb	r2, [r3, #32]
 716:../reversi8_2019.c **** 	tableros_resueltos[0][4][1] = 0;
 4627              		.loc 1 716 0
 4628 1d84 10301BE5 		ldr	r3, [fp, #-16]
 4629 1d88 0020A0E3 		mov	r2, #0
 4630 1d8c 2120C3E5 		strb	r2, [r3, #33]
 717:../reversi8_2019.c **** 	tableros_resueltos[0][4][2] = 0;
 4631              		.loc 1 717 0
 4632 1d90 10301BE5 		ldr	r3, [fp, #-16]
 4633 1d94 0020A0E3 		mov	r2, #0
 4634 1d98 2220C3E5 		strb	r2, [r3, #34]
 718:../reversi8_2019.c **** 	tableros_resueltos[0][4][3] = 2;
 4635              		.loc 1 718 0
 4636 1d9c 10301BE5 		ldr	r3, [fp, #-16]
 4637 1da0 0220A0E3 		mov	r2, #2
 4638 1da4 2320C3E5 		strb	r2, [r3, #35]
 719:../reversi8_2019.c **** 	tableros_resueltos[0][4][4] = 1;
 4639              		.loc 1 719 0
 4640 1da8 10301BE5 		ldr	r3, [fp, #-16]
 4641 1dac 0120A0E3 		mov	r2, #1
 4642 1db0 2420C3E5 		strb	r2, [r3, #36]
 720:../reversi8_2019.c **** 	tableros_resueltos[0][4][5] = 0;
 4643              		.loc 1 720 0
 4644 1db4 10301BE5 		ldr	r3, [fp, #-16]
 4645 1db8 0020A0E3 		mov	r2, #0
 4646 1dbc 2520C3E5 		strb	r2, [r3, #37]
 721:../reversi8_2019.c **** 	tableros_resueltos[0][4][6] = 0;
 4647              		.loc 1 721 0
 4648 1dc0 10301BE5 		ldr	r3, [fp, #-16]
 4649 1dc4 0020A0E3 		mov	r2, #0
 4650 1dc8 2620C3E5 		strb	r2, [r3, #38]
 722:../reversi8_2019.c **** 	tableros_resueltos[0][4][7] = 0;
 4651              		.loc 1 722 0
 4652 1dcc 10301BE5 		ldr	r3, [fp, #-16]
 4653 1dd0 0020A0E3 		mov	r2, #0
 4654 1dd4 2720C3E5 		strb	r2, [r3, #39]
 723:../reversi8_2019.c **** 
 724:../reversi8_2019.c **** 	tableros_resueltos[0][5][0] = 0;
 4655              		.loc 1 724 0
 4656 1dd8 10301BE5 		ldr	r3, [fp, #-16]
 4657 1ddc 0020A0E3 		mov	r2, #0
 4658 1de0 2820C3E5 		strb	r2, [r3, #40]
 725:../reversi8_2019.c **** 	tableros_resueltos[0][5][1] = 0;
 4659              		.loc 1 725 0
 4660 1de4 10301BE5 		ldr	r3, [fp, #-16]
 4661 1de8 0020A0E3 		mov	r2, #0
 4662 1dec 2920C3E5 		strb	r2, [r3, #41]
 726:../reversi8_2019.c **** 	tableros_resueltos[0][5][2] = 0;
 4663              		.loc 1 726 0
 4664 1df0 10301BE5 		ldr	r3, [fp, #-16]
 4665 1df4 0020A0E3 		mov	r2, #0
 4666 1df8 2A20C3E5 		strb	r2, [r3, #42]
 727:../reversi8_2019.c **** 	tableros_resueltos[0][5][3] = 0;
 4667              		.loc 1 727 0
 4668 1dfc 10301BE5 		ldr	r3, [fp, #-16]
 4669 1e00 0020A0E3 		mov	r2, #0
 4670 1e04 2B20C3E5 		strb	r2, [r3, #43]
 728:../reversi8_2019.c **** 	tableros_resueltos[0][5][4] = 0;
 4671              		.loc 1 728 0
 4672 1e08 10301BE5 		ldr	r3, [fp, #-16]
 4673 1e0c 0020A0E3 		mov	r2, #0
 4674 1e10 2C20C3E5 		strb	r2, [r3, #44]
 729:../reversi8_2019.c **** 	tableros_resueltos[0][5][5] = 0;
 4675              		.loc 1 729 0
 4676 1e14 10301BE5 		ldr	r3, [fp, #-16]
 4677 1e18 0020A0E3 		mov	r2, #0
 4678 1e1c 2D20C3E5 		strb	r2, [r3, #45]
 730:../reversi8_2019.c **** 	tableros_resueltos[0][5][6] = 0;
 4679              		.loc 1 730 0
 4680 1e20 10301BE5 		ldr	r3, [fp, #-16]
 4681 1e24 0020A0E3 		mov	r2, #0
 4682 1e28 2E20C3E5 		strb	r2, [r3, #46]
 731:../reversi8_2019.c **** 	tableros_resueltos[0][5][7] = 0;
 4683              		.loc 1 731 0
 4684 1e2c 10301BE5 		ldr	r3, [fp, #-16]
 4685 1e30 0020A0E3 		mov	r2, #0
 4686 1e34 2F20C3E5 		strb	r2, [r3, #47]
 732:../reversi8_2019.c **** 
 733:../reversi8_2019.c **** 	tableros_resueltos[0][6][0] = 0;
 4687              		.loc 1 733 0
 4688 1e38 10301BE5 		ldr	r3, [fp, #-16]
 4689 1e3c 0020A0E3 		mov	r2, #0
 4690 1e40 3020C3E5 		strb	r2, [r3, #48]
 734:../reversi8_2019.c **** 	tableros_resueltos[0][6][1] = 0;
 4691              		.loc 1 734 0
 4692 1e44 10301BE5 		ldr	r3, [fp, #-16]
 4693 1e48 0020A0E3 		mov	r2, #0
 4694 1e4c 3120C3E5 		strb	r2, [r3, #49]
 735:../reversi8_2019.c **** 	tableros_resueltos[0][6][2] = 0;
 4695              		.loc 1 735 0
 4696 1e50 10301BE5 		ldr	r3, [fp, #-16]
 4697 1e54 0020A0E3 		mov	r2, #0
 4698 1e58 3220C3E5 		strb	r2, [r3, #50]
 736:../reversi8_2019.c **** 	tableros_resueltos[0][6][3] = 0;
 4699              		.loc 1 736 0
 4700 1e5c 10301BE5 		ldr	r3, [fp, #-16]
 4701 1e60 0020A0E3 		mov	r2, #0
 4702 1e64 3320C3E5 		strb	r2, [r3, #51]
 737:../reversi8_2019.c **** 	tableros_resueltos[0][6][4] = 0;
 4703              		.loc 1 737 0
 4704 1e68 10301BE5 		ldr	r3, [fp, #-16]
 4705 1e6c 0020A0E3 		mov	r2, #0
 4706 1e70 3420C3E5 		strb	r2, [r3, #52]
 738:../reversi8_2019.c **** 	tableros_resueltos[0][6][5] = 0;
 4707              		.loc 1 738 0
 4708 1e74 10301BE5 		ldr	r3, [fp, #-16]
 4709 1e78 0020A0E3 		mov	r2, #0
 4710 1e7c 3520C3E5 		strb	r2, [r3, #53]
 739:../reversi8_2019.c **** 	tableros_resueltos[0][6][6] = 0;
 4711              		.loc 1 739 0
 4712 1e80 10301BE5 		ldr	r3, [fp, #-16]
 4713 1e84 0020A0E3 		mov	r2, #0
 4714 1e88 3620C3E5 		strb	r2, [r3, #54]
 740:../reversi8_2019.c **** 	tableros_resueltos[0][6][7] = 0;
 4715              		.loc 1 740 0
 4716 1e8c 10301BE5 		ldr	r3, [fp, #-16]
 4717 1e90 0020A0E3 		mov	r2, #0
 4718 1e94 3720C3E5 		strb	r2, [r3, #55]
 741:../reversi8_2019.c **** 
 742:../reversi8_2019.c **** 	tableros_resueltos[0][7][0] = 0;
 4719              		.loc 1 742 0
 4720 1e98 10301BE5 		ldr	r3, [fp, #-16]
 4721 1e9c 0020A0E3 		mov	r2, #0
 4722 1ea0 3820C3E5 		strb	r2, [r3, #56]
 743:../reversi8_2019.c **** 	tableros_resueltos[0][7][1] = 0;
 4723              		.loc 1 743 0
 4724 1ea4 10301BE5 		ldr	r3, [fp, #-16]
 4725 1ea8 0020A0E3 		mov	r2, #0
 4726 1eac 3920C3E5 		strb	r2, [r3, #57]
 744:../reversi8_2019.c **** 	tableros_resueltos[0][7][2] = 0;
 4727              		.loc 1 744 0
 4728 1eb0 10301BE5 		ldr	r3, [fp, #-16]
 4729 1eb4 0020A0E3 		mov	r2, #0
 4730 1eb8 3A20C3E5 		strb	r2, [r3, #58]
 745:../reversi8_2019.c **** 	tableros_resueltos[0][7][3] = 0;
 4731              		.loc 1 745 0
 4732 1ebc 10301BE5 		ldr	r3, [fp, #-16]
 4733 1ec0 0020A0E3 		mov	r2, #0
 4734 1ec4 3B20C3E5 		strb	r2, [r3, #59]
 746:../reversi8_2019.c **** 	tableros_resueltos[0][7][4] = 0;
 4735              		.loc 1 746 0
 4736 1ec8 10301BE5 		ldr	r3, [fp, #-16]
 4737 1ecc 0020A0E3 		mov	r2, #0
 4738 1ed0 3C20C3E5 		strb	r2, [r3, #60]
 747:../reversi8_2019.c **** 	tableros_resueltos[0][7][5] = 0;
 4739              		.loc 1 747 0
 4740 1ed4 10301BE5 		ldr	r3, [fp, #-16]
 4741 1ed8 0020A0E3 		mov	r2, #0
 4742 1edc 3D20C3E5 		strb	r2, [r3, #61]
 748:../reversi8_2019.c **** 	tableros_resueltos[0][7][6] = 0;
 4743              		.loc 1 748 0
 4744 1ee0 10301BE5 		ldr	r3, [fp, #-16]
 4745 1ee4 0020A0E3 		mov	r2, #0
 4746 1ee8 3E20C3E5 		strb	r2, [r3, #62]
 749:../reversi8_2019.c **** 	tableros_resueltos[0][7][7] = 0;
 4747              		.loc 1 749 0
 4748 1eec 10301BE5 		ldr	r3, [fp, #-16]
 4749 1ef0 0020A0E3 		mov	r2, #0
 4750 1ef4 3F20C3E5 		strb	r2, [r3, #63]
 750:../reversi8_2019.c **** 
 751:../reversi8_2019.c **** 	/*RESULTADO 2*/
 752:../reversi8_2019.c **** 
 753:../reversi8_2019.c **** 	tableros_resueltos[1][0][0] = 0;
 4751              		.loc 1 753 0
 4752 1ef8 10301BE5 		ldr	r3, [fp, #-16]
 4753 1efc 403083E2 		add	r3, r3, #64
 4754 1f00 0020A0E3 		mov	r2, #0
 4755 1f04 0020C3E5 		strb	r2, [r3, #0]
 754:../reversi8_2019.c **** 	tableros_resueltos[1][0][1] = 0;
 4756              		.loc 1 754 0
 4757 1f08 10301BE5 		ldr	r3, [fp, #-16]
 4758 1f0c 403083E2 		add	r3, r3, #64
 4759 1f10 0020A0E3 		mov	r2, #0
 4760 1f14 0120C3E5 		strb	r2, [r3, #1]
 755:../reversi8_2019.c **** 	tableros_resueltos[1][0][2] = 0;
 4761              		.loc 1 755 0
 4762 1f18 10301BE5 		ldr	r3, [fp, #-16]
 4763 1f1c 403083E2 		add	r3, r3, #64
 4764 1f20 0020A0E3 		mov	r2, #0
 4765 1f24 0220C3E5 		strb	r2, [r3, #2]
 756:../reversi8_2019.c **** 	tableros_resueltos[1][0][3] = 0;
 4766              		.loc 1 756 0
 4767 1f28 10301BE5 		ldr	r3, [fp, #-16]
 4768 1f2c 403083E2 		add	r3, r3, #64
 4769 1f30 0020A0E3 		mov	r2, #0
 4770 1f34 0320C3E5 		strb	r2, [r3, #3]
 757:../reversi8_2019.c **** 	tableros_resueltos[1][0][4] = 0;
 4771              		.loc 1 757 0
 4772 1f38 10301BE5 		ldr	r3, [fp, #-16]
 4773 1f3c 403083E2 		add	r3, r3, #64
 4774 1f40 0020A0E3 		mov	r2, #0
 4775 1f44 0420C3E5 		strb	r2, [r3, #4]
 758:../reversi8_2019.c **** 	tableros_resueltos[1][0][5] = 0;
 4776              		.loc 1 758 0
 4777 1f48 10301BE5 		ldr	r3, [fp, #-16]
 4778 1f4c 403083E2 		add	r3, r3, #64
 4779 1f50 0020A0E3 		mov	r2, #0
 4780 1f54 0520C3E5 		strb	r2, [r3, #5]
 759:../reversi8_2019.c **** 	tableros_resueltos[1][0][6] = 0;
 4781              		.loc 1 759 0
 4782 1f58 10301BE5 		ldr	r3, [fp, #-16]
 4783 1f5c 403083E2 		add	r3, r3, #64
 4784 1f60 0020A0E3 		mov	r2, #0
 4785 1f64 0620C3E5 		strb	r2, [r3, #6]
 760:../reversi8_2019.c **** 	tableros_resueltos[1][0][7] = 0;
 4786              		.loc 1 760 0
 4787 1f68 10301BE5 		ldr	r3, [fp, #-16]
 4788 1f6c 403083E2 		add	r3, r3, #64
 4789 1f70 0020A0E3 		mov	r2, #0
 4790 1f74 0720C3E5 		strb	r2, [r3, #7]
 761:../reversi8_2019.c **** 
 762:../reversi8_2019.c **** 	tableros_resueltos[1][1][0] = 0;
 4791              		.loc 1 762 0
 4792 1f78 10301BE5 		ldr	r3, [fp, #-16]
 4793 1f7c 403083E2 		add	r3, r3, #64
 4794 1f80 0020A0E3 		mov	r2, #0
 4795 1f84 0820C3E5 		strb	r2, [r3, #8]
 763:../reversi8_2019.c **** 	tableros_resueltos[1][1][1] = 0;
 4796              		.loc 1 763 0
 4797 1f88 10301BE5 		ldr	r3, [fp, #-16]
 4798 1f8c 403083E2 		add	r3, r3, #64
 4799 1f90 0020A0E3 		mov	r2, #0
 4800 1f94 0920C3E5 		strb	r2, [r3, #9]
 764:../reversi8_2019.c **** 	tableros_resueltos[1][1][2] = 0;
 4801              		.loc 1 764 0
 4802 1f98 10301BE5 		ldr	r3, [fp, #-16]
 4803 1f9c 403083E2 		add	r3, r3, #64
 4804 1fa0 0020A0E3 		mov	r2, #0
 4805 1fa4 0A20C3E5 		strb	r2, [r3, #10]
 765:../reversi8_2019.c **** 	tableros_resueltos[1][1][3] = 0;
 4806              		.loc 1 765 0
 4807 1fa8 10301BE5 		ldr	r3, [fp, #-16]
 4808 1fac 403083E2 		add	r3, r3, #64
 4809 1fb0 0020A0E3 		mov	r2, #0
 4810 1fb4 0B20C3E5 		strb	r2, [r3, #11]
 766:../reversi8_2019.c **** 	tableros_resueltos[1][1][4] = 0;
 4811              		.loc 1 766 0
 4812 1fb8 10301BE5 		ldr	r3, [fp, #-16]
 4813 1fbc 403083E2 		add	r3, r3, #64
 4814 1fc0 0020A0E3 		mov	r2, #0
 4815 1fc4 0C20C3E5 		strb	r2, [r3, #12]
 767:../reversi8_2019.c **** 	tableros_resueltos[1][1][5] = 0;
 4816              		.loc 1 767 0
 4817 1fc8 10301BE5 		ldr	r3, [fp, #-16]
 4818 1fcc 403083E2 		add	r3, r3, #64
 4819 1fd0 0020A0E3 		mov	r2, #0
 4820 1fd4 0D20C3E5 		strb	r2, [r3, #13]
 768:../reversi8_2019.c **** 	tableros_resueltos[1][1][6] = 0;
 4821              		.loc 1 768 0
 4822 1fd8 10301BE5 		ldr	r3, [fp, #-16]
 4823 1fdc 403083E2 		add	r3, r3, #64
 4824 1fe0 0020A0E3 		mov	r2, #0
 4825 1fe4 0E20C3E5 		strb	r2, [r3, #14]
 769:../reversi8_2019.c **** 	tableros_resueltos[1][1][7] = 0;
 4826              		.loc 1 769 0
 4827 1fe8 10301BE5 		ldr	r3, [fp, #-16]
 4828 1fec 403083E2 		add	r3, r3, #64
 4829 1ff0 0020A0E3 		mov	r2, #0
 4830 1ff4 0F20C3E5 		strb	r2, [r3, #15]
 770:../reversi8_2019.c **** 
 771:../reversi8_2019.c **** 	tableros_resueltos[1][2][0] = 0;
 4831              		.loc 1 771 0
 4832 1ff8 10301BE5 		ldr	r3, [fp, #-16]
 4833 1ffc 403083E2 		add	r3, r3, #64
 4834 2000 0020A0E3 		mov	r2, #0
 4835 2004 1020C3E5 		strb	r2, [r3, #16]
 772:../reversi8_2019.c **** 	tableros_resueltos[1][2][1] = 0;
 4836              		.loc 1 772 0
 4837 2008 10301BE5 		ldr	r3, [fp, #-16]
 4838 200c 403083E2 		add	r3, r3, #64
 4839 2010 0020A0E3 		mov	r2, #0
 4840 2014 1120C3E5 		strb	r2, [r3, #17]
 773:../reversi8_2019.c **** 	tableros_resueltos[1][2][2] = 1;
 4841              		.loc 1 773 0
 4842 2018 10301BE5 		ldr	r3, [fp, #-16]
 4843 201c 403083E2 		add	r3, r3, #64
 4844 2020 0120A0E3 		mov	r2, #1
 4845 2024 1220C3E5 		strb	r2, [r3, #18]
 774:../reversi8_2019.c **** 	tableros_resueltos[1][2][3] = 1;
 4846              		.loc 1 774 0
 4847 2028 10301BE5 		ldr	r3, [fp, #-16]
 4848 202c 403083E2 		add	r3, r3, #64
 4849 2030 0120A0E3 		mov	r2, #1
 4850 2034 1320C3E5 		strb	r2, [r3, #19]
 775:../reversi8_2019.c **** 	tableros_resueltos[1][2][4] = 1;
 4851              		.loc 1 775 0
 4852 2038 10301BE5 		ldr	r3, [fp, #-16]
 4853 203c 403083E2 		add	r3, r3, #64
 4854 2040 0120A0E3 		mov	r2, #1
 4855 2044 1420C3E5 		strb	r2, [r3, #20]
 776:../reversi8_2019.c **** 	tableros_resueltos[1][2][5] = 0;
 4856              		.loc 1 776 0
 4857 2048 10301BE5 		ldr	r3, [fp, #-16]
 4858 204c 403083E2 		add	r3, r3, #64
 4859 2050 0020A0E3 		mov	r2, #0
 4860 2054 1520C3E5 		strb	r2, [r3, #21]
 777:../reversi8_2019.c **** 	tableros_resueltos[1][2][6] = 0;
 4861              		.loc 1 777 0
 4862 2058 10301BE5 		ldr	r3, [fp, #-16]
 4863 205c 403083E2 		add	r3, r3, #64
 4864 2060 0020A0E3 		mov	r2, #0
 4865 2064 1620C3E5 		strb	r2, [r3, #22]
 778:../reversi8_2019.c **** 	tableros_resueltos[1][2][7] = 0;
 4866              		.loc 1 778 0
 4867 2068 10301BE5 		ldr	r3, [fp, #-16]
 4868 206c 403083E2 		add	r3, r3, #64
 4869 2070 0020A0E3 		mov	r2, #0
 4870 2074 1720C3E5 		strb	r2, [r3, #23]
 779:../reversi8_2019.c **** 
 780:../reversi8_2019.c **** 
 781:../reversi8_2019.c **** 	tableros_resueltos[1][3][0] = 0;
 4871              		.loc 1 781 0
 4872 2078 10301BE5 		ldr	r3, [fp, #-16]
 4873 207c 403083E2 		add	r3, r3, #64
 4874 2080 0020A0E3 		mov	r2, #0
 4875 2084 1820C3E5 		strb	r2, [r3, #24]
 782:../reversi8_2019.c **** 	tableros_resueltos[1][3][1] = 0;
 4876              		.loc 1 782 0
 4877 2088 10301BE5 		ldr	r3, [fp, #-16]
 4878 208c 403083E2 		add	r3, r3, #64
 4879 2090 0020A0E3 		mov	r2, #0
 4880 2094 1920C3E5 		strb	r2, [r3, #25]
 783:../reversi8_2019.c **** 	tableros_resueltos[1][3][2] = 2;
 4881              		.loc 1 783 0
 4882 2098 10301BE5 		ldr	r3, [fp, #-16]
 4883 209c 403083E2 		add	r3, r3, #64
 4884 20a0 0220A0E3 		mov	r2, #2
 4885 20a4 1A20C3E5 		strb	r2, [r3, #26]
 784:../reversi8_2019.c **** 	tableros_resueltos[1][3][3] = 2;
 4886              		.loc 1 784 0
 4887 20a8 10301BE5 		ldr	r3, [fp, #-16]
 4888 20ac 403083E2 		add	r3, r3, #64
 4889 20b0 0220A0E3 		mov	r2, #2
 4890 20b4 1B20C3E5 		strb	r2, [r3, #27]
 785:../reversi8_2019.c **** 	tableros_resueltos[1][3][4] = 1;
 4891              		.loc 1 785 0
 4892 20b8 10301BE5 		ldr	r3, [fp, #-16]
 4893 20bc 403083E2 		add	r3, r3, #64
 4894 20c0 0120A0E3 		mov	r2, #1
 4895 20c4 1C20C3E5 		strb	r2, [r3, #28]
 786:../reversi8_2019.c **** 	tableros_resueltos[1][3][5] = 0;
 4896              		.loc 1 786 0
 4897 20c8 10301BE5 		ldr	r3, [fp, #-16]
 4898 20cc 403083E2 		add	r3, r3, #64
 4899 20d0 0020A0E3 		mov	r2, #0
 4900 20d4 1D20C3E5 		strb	r2, [r3, #29]
 787:../reversi8_2019.c **** 	tableros_resueltos[1][3][6] = 0;
 4901              		.loc 1 787 0
 4902 20d8 10301BE5 		ldr	r3, [fp, #-16]
 4903 20dc 403083E2 		add	r3, r3, #64
 4904 20e0 0020A0E3 		mov	r2, #0
 4905 20e4 1E20C3E5 		strb	r2, [r3, #30]
 788:../reversi8_2019.c **** 	tableros_resueltos[1][3][7] = 0;
 4906              		.loc 1 788 0
 4907 20e8 10301BE5 		ldr	r3, [fp, #-16]
 4908 20ec 403083E2 		add	r3, r3, #64
 4909 20f0 0020A0E3 		mov	r2, #0
 4910 20f4 1F20C3E5 		strb	r2, [r3, #31]
 789:../reversi8_2019.c **** 
 790:../reversi8_2019.c **** 	tableros_resueltos[1][4][0] = 0;
 4911              		.loc 1 790 0
 4912 20f8 10301BE5 		ldr	r3, [fp, #-16]
 4913 20fc 403083E2 		add	r3, r3, #64
 4914 2100 0020A0E3 		mov	r2, #0
 4915 2104 2020C3E5 		strb	r2, [r3, #32]
 791:../reversi8_2019.c **** 	tableros_resueltos[1][4][1] = 0;
 4916              		.loc 1 791 0
 4917 2108 10301BE5 		ldr	r3, [fp, #-16]
 4918 210c 403083E2 		add	r3, r3, #64
 4919 2110 0020A0E3 		mov	r2, #0
 4920 2114 2120C3E5 		strb	r2, [r3, #33]
 792:../reversi8_2019.c **** 	tableros_resueltos[1][4][2] = 0;
 4921              		.loc 1 792 0
 4922 2118 10301BE5 		ldr	r3, [fp, #-16]
 4923 211c 403083E2 		add	r3, r3, #64
 4924 2120 0020A0E3 		mov	r2, #0
 4925 2124 2220C3E5 		strb	r2, [r3, #34]
 793:../reversi8_2019.c **** 	tableros_resueltos[1][4][3] = 2;
 4926              		.loc 1 793 0
 4927 2128 10301BE5 		ldr	r3, [fp, #-16]
 4928 212c 403083E2 		add	r3, r3, #64
 4929 2130 0220A0E3 		mov	r2, #2
 4930 2134 2320C3E5 		strb	r2, [r3, #35]
 794:../reversi8_2019.c **** 	tableros_resueltos[1][4][4] = 1;
 4931              		.loc 1 794 0
 4932 2138 10301BE5 		ldr	r3, [fp, #-16]
 4933 213c 403083E2 		add	r3, r3, #64
 4934 2140 0120A0E3 		mov	r2, #1
 4935 2144 2420C3E5 		strb	r2, [r3, #36]
 795:../reversi8_2019.c **** 	tableros_resueltos[1][4][5] = 0;
 4936              		.loc 1 795 0
 4937 2148 10301BE5 		ldr	r3, [fp, #-16]
 4938 214c 403083E2 		add	r3, r3, #64
 4939 2150 0020A0E3 		mov	r2, #0
 4940 2154 2520C3E5 		strb	r2, [r3, #37]
 796:../reversi8_2019.c **** 	tableros_resueltos[1][4][6] = 0;
 4941              		.loc 1 796 0
 4942 2158 10301BE5 		ldr	r3, [fp, #-16]
 4943 215c 403083E2 		add	r3, r3, #64
 4944 2160 0020A0E3 		mov	r2, #0
 4945 2164 2620C3E5 		strb	r2, [r3, #38]
 797:../reversi8_2019.c **** 	tableros_resueltos[1][4][7] = 0;
 4946              		.loc 1 797 0
 4947 2168 10301BE5 		ldr	r3, [fp, #-16]
 4948 216c 403083E2 		add	r3, r3, #64
 4949 2170 0020A0E3 		mov	r2, #0
 4950 2174 2720C3E5 		strb	r2, [r3, #39]
 798:../reversi8_2019.c **** 
 799:../reversi8_2019.c **** 	tableros_resueltos[1][5][0] = 0;
 4951              		.loc 1 799 0
 4952 2178 10301BE5 		ldr	r3, [fp, #-16]
 4953 217c 403083E2 		add	r3, r3, #64
 4954 2180 0020A0E3 		mov	r2, #0
 4955 2184 2820C3E5 		strb	r2, [r3, #40]
 800:../reversi8_2019.c **** 	tableros_resueltos[1][5][1] = 0;
 4956              		.loc 1 800 0
 4957 2188 10301BE5 		ldr	r3, [fp, #-16]
 4958 218c 403083E2 		add	r3, r3, #64
 4959 2190 0020A0E3 		mov	r2, #0
 4960 2194 2920C3E5 		strb	r2, [r3, #41]
 801:../reversi8_2019.c **** 	tableros_resueltos[1][5][2] = 0;
 4961              		.loc 1 801 0
 4962 2198 10301BE5 		ldr	r3, [fp, #-16]
 4963 219c 403083E2 		add	r3, r3, #64
 4964 21a0 0020A0E3 		mov	r2, #0
 4965 21a4 2A20C3E5 		strb	r2, [r3, #42]
 802:../reversi8_2019.c **** 	tableros_resueltos[1][5][3] = 0;
 4966              		.loc 1 802 0
 4967 21a8 10301BE5 		ldr	r3, [fp, #-16]
 4968 21ac 403083E2 		add	r3, r3, #64
 4969 21b0 0020A0E3 		mov	r2, #0
 4970 21b4 2B20C3E5 		strb	r2, [r3, #43]
 803:../reversi8_2019.c **** 	tableros_resueltos[1][5][4] = 0;
 4971              		.loc 1 803 0
 4972 21b8 10301BE5 		ldr	r3, [fp, #-16]
 4973 21bc 403083E2 		add	r3, r3, #64
 4974 21c0 0020A0E3 		mov	r2, #0
 4975 21c4 2C20C3E5 		strb	r2, [r3, #44]
 804:../reversi8_2019.c **** 	tableros_resueltos[1][5][5] = 0;
 4976              		.loc 1 804 0
 4977 21c8 10301BE5 		ldr	r3, [fp, #-16]
 4978 21cc 403083E2 		add	r3, r3, #64
 4979 21d0 0020A0E3 		mov	r2, #0
 4980 21d4 2D20C3E5 		strb	r2, [r3, #45]
 805:../reversi8_2019.c **** 	tableros_resueltos[1][5][6] = 0;
 4981              		.loc 1 805 0
 4982 21d8 10301BE5 		ldr	r3, [fp, #-16]
 4983 21dc 403083E2 		add	r3, r3, #64
 4984 21e0 0020A0E3 		mov	r2, #0
 4985 21e4 2E20C3E5 		strb	r2, [r3, #46]
 806:../reversi8_2019.c **** 	tableros_resueltos[1][5][7] = 0;
 4986              		.loc 1 806 0
 4987 21e8 10301BE5 		ldr	r3, [fp, #-16]
 4988 21ec 403083E2 		add	r3, r3, #64
 4989 21f0 0020A0E3 		mov	r2, #0
 4990 21f4 2F20C3E5 		strb	r2, [r3, #47]
 807:../reversi8_2019.c **** 
 808:../reversi8_2019.c **** 	tableros_resueltos[1][6][0] = 0;
 4991              		.loc 1 808 0
 4992 21f8 10301BE5 		ldr	r3, [fp, #-16]
 4993 21fc 403083E2 		add	r3, r3, #64
 4994 2200 0020A0E3 		mov	r2, #0
 4995 2204 3020C3E5 		strb	r2, [r3, #48]
 809:../reversi8_2019.c **** 	tableros_resueltos[1][6][1] = 0;
 4996              		.loc 1 809 0
 4997 2208 10301BE5 		ldr	r3, [fp, #-16]
 4998 220c 403083E2 		add	r3, r3, #64
 4999 2210 0020A0E3 		mov	r2, #0
 5000 2214 3120C3E5 		strb	r2, [r3, #49]
 810:../reversi8_2019.c **** 	tableros_resueltos[1][6][2] = 0;
 5001              		.loc 1 810 0
 5002 2218 10301BE5 		ldr	r3, [fp, #-16]
 5003 221c 403083E2 		add	r3, r3, #64
 5004 2220 0020A0E3 		mov	r2, #0
 5005 2224 3220C3E5 		strb	r2, [r3, #50]
 811:../reversi8_2019.c **** 	tableros_resueltos[1][6][3] = 0;
 5006              		.loc 1 811 0
 5007 2228 10301BE5 		ldr	r3, [fp, #-16]
 5008 222c 403083E2 		add	r3, r3, #64
 5009 2230 0020A0E3 		mov	r2, #0
 5010 2234 3320C3E5 		strb	r2, [r3, #51]
 812:../reversi8_2019.c **** 	tableros_resueltos[1][6][4] = 0;
 5011              		.loc 1 812 0
 5012 2238 10301BE5 		ldr	r3, [fp, #-16]
 5013 223c 403083E2 		add	r3, r3, #64
 5014 2240 0020A0E3 		mov	r2, #0
 5015 2244 3420C3E5 		strb	r2, [r3, #52]
 813:../reversi8_2019.c **** 	tableros_resueltos[1][6][5] = 0;
 5016              		.loc 1 813 0
 5017 2248 10301BE5 		ldr	r3, [fp, #-16]
 5018 224c 403083E2 		add	r3, r3, #64
 5019 2250 0020A0E3 		mov	r2, #0
 5020 2254 3520C3E5 		strb	r2, [r3, #53]
 814:../reversi8_2019.c **** 	tableros_resueltos[1][6][6] = 0;
 5021              		.loc 1 814 0
 5022 2258 10301BE5 		ldr	r3, [fp, #-16]
 5023 225c 403083E2 		add	r3, r3, #64
 5024 2260 0020A0E3 		mov	r2, #0
 5025 2264 3620C3E5 		strb	r2, [r3, #54]
 815:../reversi8_2019.c **** 	tableros_resueltos[1][6][7] = 0;
 5026              		.loc 1 815 0
 5027 2268 10301BE5 		ldr	r3, [fp, #-16]
 5028 226c 403083E2 		add	r3, r3, #64
 5029 2270 0020A0E3 		mov	r2, #0
 5030 2274 3720C3E5 		strb	r2, [r3, #55]
 816:../reversi8_2019.c **** 
 817:../reversi8_2019.c **** 	tableros_resueltos[1][7][0] = 0;
 5031              		.loc 1 817 0
 5032 2278 10301BE5 		ldr	r3, [fp, #-16]
 5033 227c 403083E2 		add	r3, r3, #64
 5034 2280 0020A0E3 		mov	r2, #0
 5035 2284 3820C3E5 		strb	r2, [r3, #56]
 818:../reversi8_2019.c **** 	tableros_resueltos[1][7][1] = 0;
 5036              		.loc 1 818 0
 5037 2288 10301BE5 		ldr	r3, [fp, #-16]
 5038 228c 403083E2 		add	r3, r3, #64
 5039 2290 0020A0E3 		mov	r2, #0
 5040 2294 3920C3E5 		strb	r2, [r3, #57]
 819:../reversi8_2019.c **** 	tableros_resueltos[1][7][2] = 0;
 5041              		.loc 1 819 0
 5042 2298 10301BE5 		ldr	r3, [fp, #-16]
 5043 229c 403083E2 		add	r3, r3, #64
 5044 22a0 0020A0E3 		mov	r2, #0
 5045 22a4 3A20C3E5 		strb	r2, [r3, #58]
 820:../reversi8_2019.c **** 	tableros_resueltos[1][7][3] = 0;
 5046              		.loc 1 820 0
 5047 22a8 10301BE5 		ldr	r3, [fp, #-16]
 5048 22ac 403083E2 		add	r3, r3, #64
 5049 22b0 0020A0E3 		mov	r2, #0
 5050 22b4 3B20C3E5 		strb	r2, [r3, #59]
 821:../reversi8_2019.c **** 	tableros_resueltos[1][7][4] = 0;
 5051              		.loc 1 821 0
 5052 22b8 10301BE5 		ldr	r3, [fp, #-16]
 5053 22bc 403083E2 		add	r3, r3, #64
 5054 22c0 0020A0E3 		mov	r2, #0
 5055 22c4 3C20C3E5 		strb	r2, [r3, #60]
 822:../reversi8_2019.c **** 	tableros_resueltos[1][7][5] = 0;
 5056              		.loc 1 822 0
 5057 22c8 10301BE5 		ldr	r3, [fp, #-16]
 5058 22cc 403083E2 		add	r3, r3, #64
 5059 22d0 0020A0E3 		mov	r2, #0
 5060 22d4 3D20C3E5 		strb	r2, [r3, #61]
 823:../reversi8_2019.c **** 	tableros_resueltos[1][7][6] = 0;
 5061              		.loc 1 823 0
 5062 22d8 10301BE5 		ldr	r3, [fp, #-16]
 5063 22dc 403083E2 		add	r3, r3, #64
 5064 22e0 0020A0E3 		mov	r2, #0
 5065 22e4 3E20C3E5 		strb	r2, [r3, #62]
 824:../reversi8_2019.c **** 	tableros_resueltos[1][7][7] = 0;
 5066              		.loc 1 824 0
 5067 22e8 10301BE5 		ldr	r3, [fp, #-16]
 5068 22ec 403083E2 		add	r3, r3, #64
 5069 22f0 0020A0E3 		mov	r2, #0
 5070 22f4 3F20C3E5 		strb	r2, [r3, #63]
 825:../reversi8_2019.c **** 
 826:../reversi8_2019.c **** 
 827:../reversi8_2019.c **** 	/*RESULTADO 3*/
 828:../reversi8_2019.c **** 
 829:../reversi8_2019.c **** 	tableros_resueltos[2][0][0] = 0;
 5071              		.loc 1 829 0
 5072 22f8 10301BE5 		ldr	r3, [fp, #-16]
 5073 22fc 803083E2 		add	r3, r3, #128
 5074 2300 0020A0E3 		mov	r2, #0
 5075 2304 0020C3E5 		strb	r2, [r3, #0]
 830:../reversi8_2019.c **** 	tableros_resueltos[2][0][1] = 0;
 5076              		.loc 1 830 0
 5077 2308 10301BE5 		ldr	r3, [fp, #-16]
 5078 230c 803083E2 		add	r3, r3, #128
 5079 2310 0020A0E3 		mov	r2, #0
 5080 2314 0120C3E5 		strb	r2, [r3, #1]
 831:../reversi8_2019.c **** 	tableros_resueltos[2][0][2] = 0;
 5081              		.loc 1 831 0
 5082 2318 10301BE5 		ldr	r3, [fp, #-16]
 5083 231c 803083E2 		add	r3, r3, #128
 5084 2320 0020A0E3 		mov	r2, #0
 5085 2324 0220C3E5 		strb	r2, [r3, #2]
 832:../reversi8_2019.c **** 	tableros_resueltos[2][0][3] = 0;
 5086              		.loc 1 832 0
 5087 2328 10301BE5 		ldr	r3, [fp, #-16]
 5088 232c 803083E2 		add	r3, r3, #128
 5089 2330 0020A0E3 		mov	r2, #0
 5090 2334 0320C3E5 		strb	r2, [r3, #3]
 833:../reversi8_2019.c **** 	tableros_resueltos[2][0][4] = 0;
 5091              		.loc 1 833 0
 5092 2338 10301BE5 		ldr	r3, [fp, #-16]
 5093 233c 803083E2 		add	r3, r3, #128
 5094 2340 0020A0E3 		mov	r2, #0
 5095 2344 0420C3E5 		strb	r2, [r3, #4]
 834:../reversi8_2019.c **** 	tableros_resueltos[2][0][5] = 0;
 5096              		.loc 1 834 0
 5097 2348 10301BE5 		ldr	r3, [fp, #-16]
 5098 234c 803083E2 		add	r3, r3, #128
 5099 2350 0020A0E3 		mov	r2, #0
 5100 2354 0520C3E5 		strb	r2, [r3, #5]
 835:../reversi8_2019.c **** 	tableros_resueltos[2][0][6] = 0;
 5101              		.loc 1 835 0
 5102 2358 10301BE5 		ldr	r3, [fp, #-16]
 5103 235c 803083E2 		add	r3, r3, #128
 5104 2360 0020A0E3 		mov	r2, #0
 5105 2364 0620C3E5 		strb	r2, [r3, #6]
 836:../reversi8_2019.c **** 	tableros_resueltos[2][0][7] = 0;
 5106              		.loc 1 836 0
 5107 2368 10301BE5 		ldr	r3, [fp, #-16]
 5108 236c 803083E2 		add	r3, r3, #128
 5109 2370 0020A0E3 		mov	r2, #0
 5110 2374 0720C3E5 		strb	r2, [r3, #7]
 837:../reversi8_2019.c **** 
 838:../reversi8_2019.c **** 	tableros_resueltos[2][1][0] = 0;
 5111              		.loc 1 838 0
 5112 2378 10301BE5 		ldr	r3, [fp, #-16]
 5113 237c 803083E2 		add	r3, r3, #128
 5114 2380 0020A0E3 		mov	r2, #0
 5115 2384 0820C3E5 		strb	r2, [r3, #8]
 839:../reversi8_2019.c **** 	tableros_resueltos[2][1][1] = 0;
 5116              		.loc 1 839 0
 5117 2388 10301BE5 		ldr	r3, [fp, #-16]
 5118 238c 803083E2 		add	r3, r3, #128
 5119 2390 0020A0E3 		mov	r2, #0
 5120 2394 0920C3E5 		strb	r2, [r3, #9]
 840:../reversi8_2019.c **** 	tableros_resueltos[2][1][2] = 0;
 5121              		.loc 1 840 0
 5122 2398 10301BE5 		ldr	r3, [fp, #-16]
 5123 239c 803083E2 		add	r3, r3, #128
 5124 23a0 0020A0E3 		mov	r2, #0
 5125 23a4 0A20C3E5 		strb	r2, [r3, #10]
 841:../reversi8_2019.c **** 	tableros_resueltos[2][1][3] = 0;
 5126              		.loc 1 841 0
 5127 23a8 10301BE5 		ldr	r3, [fp, #-16]
 5128 23ac 803083E2 		add	r3, r3, #128
 5129 23b0 0020A0E3 		mov	r2, #0
 5130 23b4 0B20C3E5 		strb	r2, [r3, #11]
 842:../reversi8_2019.c **** 	tableros_resueltos[2][1][4] = 0;
 5131              		.loc 1 842 0
 5132 23b8 10301BE5 		ldr	r3, [fp, #-16]
 5133 23bc 803083E2 		add	r3, r3, #128
 5134 23c0 0020A0E3 		mov	r2, #0
 5135 23c4 0C20C3E5 		strb	r2, [r3, #12]
 843:../reversi8_2019.c **** 	tableros_resueltos[2][1][5] = 2;
 5136              		.loc 1 843 0
 5137 23c8 10301BE5 		ldr	r3, [fp, #-16]
 5138 23cc 803083E2 		add	r3, r3, #128
 5139 23d0 0220A0E3 		mov	r2, #2
 5140 23d4 0D20C3E5 		strb	r2, [r3, #13]
 844:../reversi8_2019.c **** 	tableros_resueltos[2][1][6] = 0;
 5141              		.loc 1 844 0
 5142 23d8 10301BE5 		ldr	r3, [fp, #-16]
 5143 23dc 803083E2 		add	r3, r3, #128
 5144 23e0 0020A0E3 		mov	r2, #0
 5145 23e4 0E20C3E5 		strb	r2, [r3, #14]
 845:../reversi8_2019.c **** 	tableros_resueltos[2][1][7] = 0;
 5146              		.loc 1 845 0
 5147 23e8 10301BE5 		ldr	r3, [fp, #-16]
 5148 23ec 803083E2 		add	r3, r3, #128
 5149 23f0 0020A0E3 		mov	r2, #0
 5150 23f4 0F20C3E5 		strb	r2, [r3, #15]
 846:../reversi8_2019.c **** 
 847:../reversi8_2019.c **** 	tableros_resueltos[2][2][0] = 0;
 5151              		.loc 1 847 0
 5152 23f8 10301BE5 		ldr	r3, [fp, #-16]
 5153 23fc 803083E2 		add	r3, r3, #128
 5154 2400 0020A0E3 		mov	r2, #0
 5155 2404 1020C3E5 		strb	r2, [r3, #16]
 848:../reversi8_2019.c **** 	tableros_resueltos[2][2][1] = 0;
 5156              		.loc 1 848 0
 5157 2408 10301BE5 		ldr	r3, [fp, #-16]
 5158 240c 803083E2 		add	r3, r3, #128
 5159 2410 0020A0E3 		mov	r2, #0
 5160 2414 1120C3E5 		strb	r2, [r3, #17]
 849:../reversi8_2019.c **** 	tableros_resueltos[2][2][2] = 1;
 5161              		.loc 1 849 0
 5162 2418 10301BE5 		ldr	r3, [fp, #-16]
 5163 241c 803083E2 		add	r3, r3, #128
 5164 2420 0120A0E3 		mov	r2, #1
 5165 2424 1220C3E5 		strb	r2, [r3, #18]
 850:../reversi8_2019.c **** 	tableros_resueltos[2][2][3] = 1;
 5166              		.loc 1 850 0
 5167 2428 10301BE5 		ldr	r3, [fp, #-16]
 5168 242c 803083E2 		add	r3, r3, #128
 5169 2430 0120A0E3 		mov	r2, #1
 5170 2434 1320C3E5 		strb	r2, [r3, #19]
 851:../reversi8_2019.c **** 	tableros_resueltos[2][2][4] = 1;
 5171              		.loc 1 851 0
 5172 2438 10301BE5 		ldr	r3, [fp, #-16]
 5173 243c 803083E2 		add	r3, r3, #128
 5174 2440 0120A0E3 		mov	r2, #1
 5175 2444 1420C3E5 		strb	r2, [r3, #20]
 852:../reversi8_2019.c **** 	tableros_resueltos[2][2][5] = 1;
 5176              		.loc 1 852 0
 5177 2448 10301BE5 		ldr	r3, [fp, #-16]
 5178 244c 803083E2 		add	r3, r3, #128
 5179 2450 0120A0E3 		mov	r2, #1
 5180 2454 1520C3E5 		strb	r2, [r3, #21]
 853:../reversi8_2019.c **** 	tableros_resueltos[2][2][6] = 0;
 5181              		.loc 1 853 0
 5182 2458 10301BE5 		ldr	r3, [fp, #-16]
 5183 245c 803083E2 		add	r3, r3, #128
 5184 2460 0020A0E3 		mov	r2, #0
 5185 2464 1620C3E5 		strb	r2, [r3, #22]
 854:../reversi8_2019.c **** 	tableros_resueltos[2][2][7] = 0;
 5186              		.loc 1 854 0
 5187 2468 10301BE5 		ldr	r3, [fp, #-16]
 5188 246c 803083E2 		add	r3, r3, #128
 5189 2470 0020A0E3 		mov	r2, #0
 5190 2474 1720C3E5 		strb	r2, [r3, #23]
 855:../reversi8_2019.c **** 
 856:../reversi8_2019.c **** 
 857:../reversi8_2019.c **** 	tableros_resueltos[2][3][0] = 0;
 5191              		.loc 1 857 0
 5192 2478 10301BE5 		ldr	r3, [fp, #-16]
 5193 247c 803083E2 		add	r3, r3, #128
 5194 2480 0020A0E3 		mov	r2, #0
 5195 2484 1820C3E5 		strb	r2, [r3, #24]
 858:../reversi8_2019.c **** 	tableros_resueltos[2][3][1] = 0;
 5196              		.loc 1 858 0
 5197 2488 10301BE5 		ldr	r3, [fp, #-16]
 5198 248c 803083E2 		add	r3, r3, #128
 5199 2490 0020A0E3 		mov	r2, #0
 5200 2494 1920C3E5 		strb	r2, [r3, #25]
 859:../reversi8_2019.c **** 	tableros_resueltos[2][3][2] = 2;
 5201              		.loc 1 859 0
 5202 2498 10301BE5 		ldr	r3, [fp, #-16]
 5203 249c 803083E2 		add	r3, r3, #128
 5204 24a0 0220A0E3 		mov	r2, #2
 5205 24a4 1A20C3E5 		strb	r2, [r3, #26]
 860:../reversi8_2019.c **** 	tableros_resueltos[2][3][3] = 2;
 5206              		.loc 1 860 0
 5207 24a8 10301BE5 		ldr	r3, [fp, #-16]
 5208 24ac 803083E2 		add	r3, r3, #128
 5209 24b0 0220A0E3 		mov	r2, #2
 5210 24b4 1B20C3E5 		strb	r2, [r3, #27]
 861:../reversi8_2019.c **** 	tableros_resueltos[2][3][4] = 1;
 5211              		.loc 1 861 0
 5212 24b8 10301BE5 		ldr	r3, [fp, #-16]
 5213 24bc 803083E2 		add	r3, r3, #128
 5214 24c0 0120A0E3 		mov	r2, #1
 5215 24c4 1C20C3E5 		strb	r2, [r3, #28]
 862:../reversi8_2019.c **** 	tableros_resueltos[2][3][5] = 0;
 5216              		.loc 1 862 0
 5217 24c8 10301BE5 		ldr	r3, [fp, #-16]
 5218 24cc 803083E2 		add	r3, r3, #128
 5219 24d0 0020A0E3 		mov	r2, #0
 5220 24d4 1D20C3E5 		strb	r2, [r3, #29]
 863:../reversi8_2019.c **** 	tableros_resueltos[2][3][6] = 0;
 5221              		.loc 1 863 0
 5222 24d8 10301BE5 		ldr	r3, [fp, #-16]
 5223 24dc 803083E2 		add	r3, r3, #128
 5224 24e0 0020A0E3 		mov	r2, #0
 5225 24e4 1E20C3E5 		strb	r2, [r3, #30]
 864:../reversi8_2019.c **** 	tableros_resueltos[2][3][7] = 0;
 5226              		.loc 1 864 0
 5227 24e8 10301BE5 		ldr	r3, [fp, #-16]
 5228 24ec 803083E2 		add	r3, r3, #128
 5229 24f0 0020A0E3 		mov	r2, #0
 5230 24f4 1F20C3E5 		strb	r2, [r3, #31]
 865:../reversi8_2019.c **** 
 866:../reversi8_2019.c **** 	tableros_resueltos[2][4][0] = 0;
 5231              		.loc 1 866 0
 5232 24f8 10301BE5 		ldr	r3, [fp, #-16]
 5233 24fc 803083E2 		add	r3, r3, #128
 5234 2500 0020A0E3 		mov	r2, #0
 5235 2504 2020C3E5 		strb	r2, [r3, #32]
 867:../reversi8_2019.c **** 	tableros_resueltos[2][4][1] = 0;
 5236              		.loc 1 867 0
 5237 2508 10301BE5 		ldr	r3, [fp, #-16]
 5238 250c 803083E2 		add	r3, r3, #128
 5239 2510 0020A0E3 		mov	r2, #0
 5240 2514 2120C3E5 		strb	r2, [r3, #33]
 868:../reversi8_2019.c **** 	tableros_resueltos[2][4][2] = 0;
 5241              		.loc 1 868 0
 5242 2518 10301BE5 		ldr	r3, [fp, #-16]
 5243 251c 803083E2 		add	r3, r3, #128
 5244 2520 0020A0E3 		mov	r2, #0
 5245 2524 2220C3E5 		strb	r2, [r3, #34]
 869:../reversi8_2019.c **** 	tableros_resueltos[2][4][3] = 2;
 5246              		.loc 1 869 0
 5247 2528 10301BE5 		ldr	r3, [fp, #-16]
 5248 252c 803083E2 		add	r3, r3, #128
 5249 2530 0220A0E3 		mov	r2, #2
 5250 2534 2320C3E5 		strb	r2, [r3, #35]
 870:../reversi8_2019.c **** 	tableros_resueltos[2][4][4] = 1;
 5251              		.loc 1 870 0
 5252 2538 10301BE5 		ldr	r3, [fp, #-16]
 5253 253c 803083E2 		add	r3, r3, #128
 5254 2540 0120A0E3 		mov	r2, #1
 5255 2544 2420C3E5 		strb	r2, [r3, #36]
 871:../reversi8_2019.c **** 	tableros_resueltos[2][4][5] = 0;
 5256              		.loc 1 871 0
 5257 2548 10301BE5 		ldr	r3, [fp, #-16]
 5258 254c 803083E2 		add	r3, r3, #128
 5259 2550 0020A0E3 		mov	r2, #0
 5260 2554 2520C3E5 		strb	r2, [r3, #37]
 872:../reversi8_2019.c **** 	tableros_resueltos[2][4][6] = 0;
 5261              		.loc 1 872 0
 5262 2558 10301BE5 		ldr	r3, [fp, #-16]
 5263 255c 803083E2 		add	r3, r3, #128
 5264 2560 0020A0E3 		mov	r2, #0
 5265 2564 2620C3E5 		strb	r2, [r3, #38]
 873:../reversi8_2019.c **** 	tableros_resueltos[2][4][7] = 0;
 5266              		.loc 1 873 0
 5267 2568 10301BE5 		ldr	r3, [fp, #-16]
 5268 256c 803083E2 		add	r3, r3, #128
 5269 2570 0020A0E3 		mov	r2, #0
 5270 2574 2720C3E5 		strb	r2, [r3, #39]
 874:../reversi8_2019.c **** 
 875:../reversi8_2019.c **** 	tableros_resueltos[2][5][0] = 0;
 5271              		.loc 1 875 0
 5272 2578 10301BE5 		ldr	r3, [fp, #-16]
 5273 257c 803083E2 		add	r3, r3, #128
 5274 2580 0020A0E3 		mov	r2, #0
 5275 2584 2820C3E5 		strb	r2, [r3, #40]
 876:../reversi8_2019.c **** 	tableros_resueltos[2][5][1] = 0;
 5276              		.loc 1 876 0
 5277 2588 10301BE5 		ldr	r3, [fp, #-16]
 5278 258c 803083E2 		add	r3, r3, #128
 5279 2590 0020A0E3 		mov	r2, #0
 5280 2594 2920C3E5 		strb	r2, [r3, #41]
 877:../reversi8_2019.c **** 	tableros_resueltos[2][5][2] = 0;
 5281              		.loc 1 877 0
 5282 2598 10301BE5 		ldr	r3, [fp, #-16]
 5283 259c 803083E2 		add	r3, r3, #128
 5284 25a0 0020A0E3 		mov	r2, #0
 5285 25a4 2A20C3E5 		strb	r2, [r3, #42]
 878:../reversi8_2019.c **** 	tableros_resueltos[2][5][3] = 0;
 5286              		.loc 1 878 0
 5287 25a8 10301BE5 		ldr	r3, [fp, #-16]
 5288 25ac 803083E2 		add	r3, r3, #128
 5289 25b0 0020A0E3 		mov	r2, #0
 5290 25b4 2B20C3E5 		strb	r2, [r3, #43]
 879:../reversi8_2019.c **** 	tableros_resueltos[2][5][4] = 0;
 5291              		.loc 1 879 0
 5292 25b8 10301BE5 		ldr	r3, [fp, #-16]
 5293 25bc 803083E2 		add	r3, r3, #128
 5294 25c0 0020A0E3 		mov	r2, #0
 5295 25c4 2C20C3E5 		strb	r2, [r3, #44]
 880:../reversi8_2019.c **** 	tableros_resueltos[2][5][5] = 0;
 5296              		.loc 1 880 0
 5297 25c8 10301BE5 		ldr	r3, [fp, #-16]
 5298 25cc 803083E2 		add	r3, r3, #128
 5299 25d0 0020A0E3 		mov	r2, #0
 5300 25d4 2D20C3E5 		strb	r2, [r3, #45]
 881:../reversi8_2019.c **** 	tableros_resueltos[2][5][6] = 0;
 5301              		.loc 1 881 0
 5302 25d8 10301BE5 		ldr	r3, [fp, #-16]
 5303 25dc 803083E2 		add	r3, r3, #128
 5304 25e0 0020A0E3 		mov	r2, #0
 5305 25e4 2E20C3E5 		strb	r2, [r3, #46]
 882:../reversi8_2019.c **** 	tableros_resueltos[2][5][7] = 0;
 5306              		.loc 1 882 0
 5307 25e8 10301BE5 		ldr	r3, [fp, #-16]
 5308 25ec 803083E2 		add	r3, r3, #128
 5309 25f0 0020A0E3 		mov	r2, #0
 5310 25f4 2F20C3E5 		strb	r2, [r3, #47]
 883:../reversi8_2019.c **** 
 884:../reversi8_2019.c **** 	tableros_resueltos[2][6][0] = 0;
 5311              		.loc 1 884 0
 5312 25f8 10301BE5 		ldr	r3, [fp, #-16]
 5313 25fc 803083E2 		add	r3, r3, #128
 5314 2600 0020A0E3 		mov	r2, #0
 5315 2604 3020C3E5 		strb	r2, [r3, #48]
 885:../reversi8_2019.c **** 	tableros_resueltos[2][6][1] = 0;
 5316              		.loc 1 885 0
 5317 2608 10301BE5 		ldr	r3, [fp, #-16]
 5318 260c 803083E2 		add	r3, r3, #128
 5319 2610 0020A0E3 		mov	r2, #0
 5320 2614 3120C3E5 		strb	r2, [r3, #49]
 886:../reversi8_2019.c **** 	tableros_resueltos[2][6][2] = 0;
 5321              		.loc 1 886 0
 5322 2618 10301BE5 		ldr	r3, [fp, #-16]
 5323 261c 803083E2 		add	r3, r3, #128
 5324 2620 0020A0E3 		mov	r2, #0
 5325 2624 3220C3E5 		strb	r2, [r3, #50]
 887:../reversi8_2019.c **** 	tableros_resueltos[2][6][3] = 0;
 5326              		.loc 1 887 0
 5327 2628 10301BE5 		ldr	r3, [fp, #-16]
 5328 262c 803083E2 		add	r3, r3, #128
 5329 2630 0020A0E3 		mov	r2, #0
 5330 2634 3320C3E5 		strb	r2, [r3, #51]
 888:../reversi8_2019.c **** 	tableros_resueltos[2][6][4] = 0;
 5331              		.loc 1 888 0
 5332 2638 10301BE5 		ldr	r3, [fp, #-16]
 5333 263c 803083E2 		add	r3, r3, #128
 5334 2640 0020A0E3 		mov	r2, #0
 5335 2644 3420C3E5 		strb	r2, [r3, #52]
 889:../reversi8_2019.c **** 	tableros_resueltos[2][6][5] = 0;
 5336              		.loc 1 889 0
 5337 2648 10301BE5 		ldr	r3, [fp, #-16]
 5338 264c 803083E2 		add	r3, r3, #128
 5339 2650 0020A0E3 		mov	r2, #0
 5340 2654 3520C3E5 		strb	r2, [r3, #53]
 890:../reversi8_2019.c **** 	tableros_resueltos[2][6][6] = 0;
 5341              		.loc 1 890 0
 5342 2658 10301BE5 		ldr	r3, [fp, #-16]
 5343 265c 803083E2 		add	r3, r3, #128
 5344 2660 0020A0E3 		mov	r2, #0
 5345 2664 3620C3E5 		strb	r2, [r3, #54]
 891:../reversi8_2019.c **** 	tableros_resueltos[2][6][7] = 0;
 5346              		.loc 1 891 0
 5347 2668 10301BE5 		ldr	r3, [fp, #-16]
 5348 266c 803083E2 		add	r3, r3, #128
 5349 2670 0020A0E3 		mov	r2, #0
 5350 2674 3720C3E5 		strb	r2, [r3, #55]
 892:../reversi8_2019.c **** 
 893:../reversi8_2019.c **** 	tableros_resueltos[2][7][0] = 0;
 5351              		.loc 1 893 0
 5352 2678 10301BE5 		ldr	r3, [fp, #-16]
 5353 267c 803083E2 		add	r3, r3, #128
 5354 2680 0020A0E3 		mov	r2, #0
 5355 2684 3820C3E5 		strb	r2, [r3, #56]
 894:../reversi8_2019.c **** 	tableros_resueltos[2][7][1] = 0;
 5356              		.loc 1 894 0
 5357 2688 10301BE5 		ldr	r3, [fp, #-16]
 5358 268c 803083E2 		add	r3, r3, #128
 5359 2690 0020A0E3 		mov	r2, #0
 5360 2694 3920C3E5 		strb	r2, [r3, #57]
 895:../reversi8_2019.c **** 	tableros_resueltos[2][7][2] = 0;
 5361              		.loc 1 895 0
 5362 2698 10301BE5 		ldr	r3, [fp, #-16]
 5363 269c 803083E2 		add	r3, r3, #128
 5364 26a0 0020A0E3 		mov	r2, #0
 5365 26a4 3A20C3E5 		strb	r2, [r3, #58]
 896:../reversi8_2019.c **** 	tableros_resueltos[2][7][3] = 0;
 5366              		.loc 1 896 0
 5367 26a8 10301BE5 		ldr	r3, [fp, #-16]
 5368 26ac 803083E2 		add	r3, r3, #128
 5369 26b0 0020A0E3 		mov	r2, #0
 5370 26b4 3B20C3E5 		strb	r2, [r3, #59]
 897:../reversi8_2019.c **** 	tableros_resueltos[2][7][4] = 0;
 5371              		.loc 1 897 0
 5372 26b8 10301BE5 		ldr	r3, [fp, #-16]
 5373 26bc 803083E2 		add	r3, r3, #128
 5374 26c0 0020A0E3 		mov	r2, #0
 5375 26c4 3C20C3E5 		strb	r2, [r3, #60]
 898:../reversi8_2019.c **** 	tableros_resueltos[2][7][5] = 0;
 5376              		.loc 1 898 0
 5377 26c8 10301BE5 		ldr	r3, [fp, #-16]
 5378 26cc 803083E2 		add	r3, r3, #128
 5379 26d0 0020A0E3 		mov	r2, #0
 5380 26d4 3D20C3E5 		strb	r2, [r3, #61]
 899:../reversi8_2019.c **** 	tableros_resueltos[2][7][6] = 0;
 5381              		.loc 1 899 0
 5382 26d8 10301BE5 		ldr	r3, [fp, #-16]
 5383 26dc 803083E2 		add	r3, r3, #128
 5384 26e0 0020A0E3 		mov	r2, #0
 5385 26e4 3E20C3E5 		strb	r2, [r3, #62]
 900:../reversi8_2019.c **** 	tableros_resueltos[2][7][7] = 0;
 5386              		.loc 1 900 0
 5387 26e8 10301BE5 		ldr	r3, [fp, #-16]
 5388 26ec 803083E2 		add	r3, r3, #128
 5389 26f0 0020A0E3 		mov	r2, #0
 5390 26f4 3F20C3E5 		strb	r2, [r3, #63]
 901:../reversi8_2019.c **** 
 902:../reversi8_2019.c **** 
 903:../reversi8_2019.c **** 	/*RESULTADO 4*/
 904:../reversi8_2019.c **** 
 905:../reversi8_2019.c **** 	tableros_resueltos[3][0][0] = 0;
 5391              		.loc 1 905 0
 5392 26f8 10301BE5 		ldr	r3, [fp, #-16]
 5393 26fc C03083E2 		add	r3, r3, #192
 5394 2700 0020A0E3 		mov	r2, #0
 5395 2704 0020C3E5 		strb	r2, [r3, #0]
 906:../reversi8_2019.c **** 	tableros_resueltos[3][0][1] = 0;
 5396              		.loc 1 906 0
 5397 2708 10301BE5 		ldr	r3, [fp, #-16]
 5398 270c C03083E2 		add	r3, r3, #192
 5399 2710 0020A0E3 		mov	r2, #0
 5400 2714 0120C3E5 		strb	r2, [r3, #1]
 907:../reversi8_2019.c **** 	tableros_resueltos[3][0][2] = 0;
 5401              		.loc 1 907 0
 5402 2718 10301BE5 		ldr	r3, [fp, #-16]
 5403 271c C03083E2 		add	r3, r3, #192
 5404 2720 0020A0E3 		mov	r2, #0
 5405 2724 0220C3E5 		strb	r2, [r3, #2]
 908:../reversi8_2019.c **** 	tableros_resueltos[3][0][3] = 0;
 5406              		.loc 1 908 0
 5407 2728 10301BE5 		ldr	r3, [fp, #-16]
 5408 272c C03083E2 		add	r3, r3, #192
 5409 2730 0020A0E3 		mov	r2, #0
 5410 2734 0320C3E5 		strb	r2, [r3, #3]
 909:../reversi8_2019.c **** 	tableros_resueltos[3][0][4] = 0;
 5411              		.loc 1 909 0
 5412 2738 10301BE5 		ldr	r3, [fp, #-16]
 5413 273c C03083E2 		add	r3, r3, #192
 5414 2740 0020A0E3 		mov	r2, #0
 5415 2744 0420C3E5 		strb	r2, [r3, #4]
 910:../reversi8_2019.c **** 	tableros_resueltos[3][0][5] = 0;
 5416              		.loc 1 910 0
 5417 2748 10301BE5 		ldr	r3, [fp, #-16]
 5418 274c C03083E2 		add	r3, r3, #192
 5419 2750 0020A0E3 		mov	r2, #0
 5420 2754 0520C3E5 		strb	r2, [r3, #5]
 911:../reversi8_2019.c **** 	tableros_resueltos[3][0][6] = 0;
 5421              		.loc 1 911 0
 5422 2758 10301BE5 		ldr	r3, [fp, #-16]
 5423 275c C03083E2 		add	r3, r3, #192
 5424 2760 0020A0E3 		mov	r2, #0
 5425 2764 0620C3E5 		strb	r2, [r3, #6]
 912:../reversi8_2019.c **** 	tableros_resueltos[3][0][7] = 0;
 5426              		.loc 1 912 0
 5427 2768 10301BE5 		ldr	r3, [fp, #-16]
 5428 276c C03083E2 		add	r3, r3, #192
 5429 2770 0020A0E3 		mov	r2, #0
 5430 2774 0720C3E5 		strb	r2, [r3, #7]
 913:../reversi8_2019.c **** 
 914:../reversi8_2019.c **** 	tableros_resueltos[3][1][0] = 0;
 5431              		.loc 1 914 0
 5432 2778 10301BE5 		ldr	r3, [fp, #-16]
 5433 277c C03083E2 		add	r3, r3, #192
 5434 2780 0020A0E3 		mov	r2, #0
 5435 2784 0820C3E5 		strb	r2, [r3, #8]
 915:../reversi8_2019.c **** 	tableros_resueltos[3][1][1] = 0;
 5436              		.loc 1 915 0
 5437 2788 10301BE5 		ldr	r3, [fp, #-16]
 5438 278c C03083E2 		add	r3, r3, #192
 5439 2790 0020A0E3 		mov	r2, #0
 5440 2794 0920C3E5 		strb	r2, [r3, #9]
 916:../reversi8_2019.c **** 	tableros_resueltos[3][1][2] = 0;
 5441              		.loc 1 916 0
 5442 2798 10301BE5 		ldr	r3, [fp, #-16]
 5443 279c C03083E2 		add	r3, r3, #192
 5444 27a0 0020A0E3 		mov	r2, #0
 5445 27a4 0A20C3E5 		strb	r2, [r3, #10]
 917:../reversi8_2019.c **** 	tableros_resueltos[3][1][3] = 0;
 5446              		.loc 1 917 0
 5447 27a8 10301BE5 		ldr	r3, [fp, #-16]
 5448 27ac C03083E2 		add	r3, r3, #192
 5449 27b0 0020A0E3 		mov	r2, #0
 5450 27b4 0B20C3E5 		strb	r2, [r3, #11]
 918:../reversi8_2019.c **** 	tableros_resueltos[3][1][4] = 0;
 5451              		.loc 1 918 0
 5452 27b8 10301BE5 		ldr	r3, [fp, #-16]
 5453 27bc C03083E2 		add	r3, r3, #192
 5454 27c0 0020A0E3 		mov	r2, #0
 5455 27c4 0C20C3E5 		strb	r2, [r3, #12]
 919:../reversi8_2019.c **** 	tableros_resueltos[3][1][5] = 2;
 5456              		.loc 1 919 0
 5457 27c8 10301BE5 		ldr	r3, [fp, #-16]
 5458 27cc C03083E2 		add	r3, r3, #192
 5459 27d0 0220A0E3 		mov	r2, #2
 5460 27d4 0D20C3E5 		strb	r2, [r3, #13]
 920:../reversi8_2019.c **** 	tableros_resueltos[3][1][6] = 0;
 5461              		.loc 1 920 0
 5462 27d8 10301BE5 		ldr	r3, [fp, #-16]
 5463 27dc C03083E2 		add	r3, r3, #192
 5464 27e0 0020A0E3 		mov	r2, #0
 5465 27e4 0E20C3E5 		strb	r2, [r3, #14]
 921:../reversi8_2019.c **** 	tableros_resueltos[3][1][7] = 0;
 5466              		.loc 1 921 0
 5467 27e8 10301BE5 		ldr	r3, [fp, #-16]
 5468 27ec C03083E2 		add	r3, r3, #192
 5469 27f0 0020A0E3 		mov	r2, #0
 5470 27f4 0F20C3E5 		strb	r2, [r3, #15]
 922:../reversi8_2019.c **** 
 923:../reversi8_2019.c **** 	tableros_resueltos[3][2][0] = 0;
 5471              		.loc 1 923 0
 5472 27f8 10301BE5 		ldr	r3, [fp, #-16]
 5473 27fc C03083E2 		add	r3, r3, #192
 5474 2800 0020A0E3 		mov	r2, #0
 5475 2804 1020C3E5 		strb	r2, [r3, #16]
 924:../reversi8_2019.c **** 	tableros_resueltos[3][2][1] = 0;
 5476              		.loc 1 924 0
 5477 2808 10301BE5 		ldr	r3, [fp, #-16]
 5478 280c C03083E2 		add	r3, r3, #192
 5479 2810 0020A0E3 		mov	r2, #0
 5480 2814 1120C3E5 		strb	r2, [r3, #17]
 925:../reversi8_2019.c **** 	tableros_resueltos[3][2][2] = 1;
 5481              		.loc 1 925 0
 5482 2818 10301BE5 		ldr	r3, [fp, #-16]
 5483 281c C03083E2 		add	r3, r3, #192
 5484 2820 0120A0E3 		mov	r2, #1
 5485 2824 1220C3E5 		strb	r2, [r3, #18]
 926:../reversi8_2019.c **** 	tableros_resueltos[3][2][3] = 1;
 5486              		.loc 1 926 0
 5487 2828 10301BE5 		ldr	r3, [fp, #-16]
 5488 282c C03083E2 		add	r3, r3, #192
 5489 2830 0120A0E3 		mov	r2, #1
 5490 2834 1320C3E5 		strb	r2, [r3, #19]
 927:../reversi8_2019.c **** 	tableros_resueltos[3][2][4] = 1;
 5491              		.loc 1 927 0
 5492 2838 10301BE5 		ldr	r3, [fp, #-16]
 5493 283c C03083E2 		add	r3, r3, #192
 5494 2840 0120A0E3 		mov	r2, #1
 5495 2844 1420C3E5 		strb	r2, [r3, #20]
 928:../reversi8_2019.c **** 	tableros_resueltos[3][2][5] = 2;
 5496              		.loc 1 928 0
 5497 2848 10301BE5 		ldr	r3, [fp, #-16]
 5498 284c C03083E2 		add	r3, r3, #192
 5499 2850 0220A0E3 		mov	r2, #2
 5500 2854 1520C3E5 		strb	r2, [r3, #21]
 929:../reversi8_2019.c **** 	tableros_resueltos[3][2][6] = 0;
 5501              		.loc 1 929 0
 5502 2858 10301BE5 		ldr	r3, [fp, #-16]
 5503 285c C03083E2 		add	r3, r3, #192
 5504 2860 0020A0E3 		mov	r2, #0
 5505 2864 1620C3E5 		strb	r2, [r3, #22]
 930:../reversi8_2019.c **** 	tableros_resueltos[3][2][7] = 0;
 5506              		.loc 1 930 0
 5507 2868 10301BE5 		ldr	r3, [fp, #-16]
 5508 286c C03083E2 		add	r3, r3, #192
 5509 2870 0020A0E3 		mov	r2, #0
 5510 2874 1720C3E5 		strb	r2, [r3, #23]
 931:../reversi8_2019.c **** 
 932:../reversi8_2019.c **** 
 933:../reversi8_2019.c **** 	tableros_resueltos[3][3][0] = 0;
 5511              		.loc 1 933 0
 5512 2878 10301BE5 		ldr	r3, [fp, #-16]
 5513 287c C03083E2 		add	r3, r3, #192
 5514 2880 0020A0E3 		mov	r2, #0
 5515 2884 1820C3E5 		strb	r2, [r3, #24]
 934:../reversi8_2019.c **** 	tableros_resueltos[3][3][1] = 0;
 5516              		.loc 1 934 0
 5517 2888 10301BE5 		ldr	r3, [fp, #-16]
 5518 288c C03083E2 		add	r3, r3, #192
 5519 2890 0020A0E3 		mov	r2, #0
 5520 2894 1920C3E5 		strb	r2, [r3, #25]
 935:../reversi8_2019.c **** 	tableros_resueltos[3][3][2] = 1;
 5521              		.loc 1 935 0
 5522 2898 10301BE5 		ldr	r3, [fp, #-16]
 5523 289c C03083E2 		add	r3, r3, #192
 5524 28a0 0120A0E3 		mov	r2, #1
 5525 28a4 1A20C3E5 		strb	r2, [r3, #26]
 936:../reversi8_2019.c **** 	tableros_resueltos[3][3][3] = 1;
 5526              		.loc 1 936 0
 5527 28a8 10301BE5 		ldr	r3, [fp, #-16]
 5528 28ac C03083E2 		add	r3, r3, #192
 5529 28b0 0120A0E3 		mov	r2, #1
 5530 28b4 1B20C3E5 		strb	r2, [r3, #27]
 937:../reversi8_2019.c **** 	tableros_resueltos[3][3][4] = 2;
 5531              		.loc 1 937 0
 5532 28b8 10301BE5 		ldr	r3, [fp, #-16]
 5533 28bc C03083E2 		add	r3, r3, #192
 5534 28c0 0220A0E3 		mov	r2, #2
 5535 28c4 1C20C3E5 		strb	r2, [r3, #28]
 938:../reversi8_2019.c **** 	tableros_resueltos[3][3][5] = 2;
 5536              		.loc 1 938 0
 5537 28c8 10301BE5 		ldr	r3, [fp, #-16]
 5538 28cc C03083E2 		add	r3, r3, #192
 5539 28d0 0220A0E3 		mov	r2, #2
 5540 28d4 1D20C3E5 		strb	r2, [r3, #29]
 939:../reversi8_2019.c **** 	tableros_resueltos[3][3][6] = 0;
 5541              		.loc 1 939 0
 5542 28d8 10301BE5 		ldr	r3, [fp, #-16]
 5543 28dc C03083E2 		add	r3, r3, #192
 5544 28e0 0020A0E3 		mov	r2, #0
 5545 28e4 1E20C3E5 		strb	r2, [r3, #30]
 940:../reversi8_2019.c **** 	tableros_resueltos[3][3][7] = 0;
 5546              		.loc 1 940 0
 5547 28e8 10301BE5 		ldr	r3, [fp, #-16]
 5548 28ec C03083E2 		add	r3, r3, #192
 5549 28f0 0020A0E3 		mov	r2, #0
 5550 28f4 1F20C3E5 		strb	r2, [r3, #31]
 941:../reversi8_2019.c **** 
 942:../reversi8_2019.c **** 	tableros_resueltos[3][4][0] = 0;
 5551              		.loc 1 942 0
 5552 28f8 10301BE5 		ldr	r3, [fp, #-16]
 5553 28fc C03083E2 		add	r3, r3, #192
 5554 2900 0020A0E3 		mov	r2, #0
 5555 2904 2020C3E5 		strb	r2, [r3, #32]
 943:../reversi8_2019.c **** 	tableros_resueltos[3][4][1] = 0;
 5556              		.loc 1 943 0
 5557 2908 10301BE5 		ldr	r3, [fp, #-16]
 5558 290c C03083E2 		add	r3, r3, #192
 5559 2910 0020A0E3 		mov	r2, #0
 5560 2914 2120C3E5 		strb	r2, [r3, #33]
 944:../reversi8_2019.c **** 	tableros_resueltos[3][4][2] = 1;
 5561              		.loc 1 944 0
 5562 2918 10301BE5 		ldr	r3, [fp, #-16]
 5563 291c C03083E2 		add	r3, r3, #192
 5564 2920 0120A0E3 		mov	r2, #1
 5565 2924 2220C3E5 		strb	r2, [r3, #34]
 945:../reversi8_2019.c **** 	tableros_resueltos[3][4][3] = 1;
 5566              		.loc 1 945 0
 5567 2928 10301BE5 		ldr	r3, [fp, #-16]
 5568 292c C03083E2 		add	r3, r3, #192
 5569 2930 0120A0E3 		mov	r2, #1
 5570 2934 2320C3E5 		strb	r2, [r3, #35]
 946:../reversi8_2019.c **** 	tableros_resueltos[3][4][4] = 1;
 5571              		.loc 1 946 0
 5572 2938 10301BE5 		ldr	r3, [fp, #-16]
 5573 293c C03083E2 		add	r3, r3, #192
 5574 2940 0120A0E3 		mov	r2, #1
 5575 2944 2420C3E5 		strb	r2, [r3, #36]
 947:../reversi8_2019.c **** 	tableros_resueltos[3][4][5] = 0;
 5576              		.loc 1 947 0
 5577 2948 10301BE5 		ldr	r3, [fp, #-16]
 5578 294c C03083E2 		add	r3, r3, #192
 5579 2950 0020A0E3 		mov	r2, #0
 5580 2954 2520C3E5 		strb	r2, [r3, #37]
 948:../reversi8_2019.c **** 	tableros_resueltos[3][4][6] = 0;
 5581              		.loc 1 948 0
 5582 2958 10301BE5 		ldr	r3, [fp, #-16]
 5583 295c C03083E2 		add	r3, r3, #192
 5584 2960 0020A0E3 		mov	r2, #0
 5585 2964 2620C3E5 		strb	r2, [r3, #38]
 949:../reversi8_2019.c **** 	tableros_resueltos[3][4][7] = 0;
 5586              		.loc 1 949 0
 5587 2968 10301BE5 		ldr	r3, [fp, #-16]
 5588 296c C03083E2 		add	r3, r3, #192
 5589 2970 0020A0E3 		mov	r2, #0
 5590 2974 2720C3E5 		strb	r2, [r3, #39]
 950:../reversi8_2019.c **** 
 951:../reversi8_2019.c **** 	tableros_resueltos[3][5][0] = 0;
 5591              		.loc 1 951 0
 5592 2978 10301BE5 		ldr	r3, [fp, #-16]
 5593 297c C03083E2 		add	r3, r3, #192
 5594 2980 0020A0E3 		mov	r2, #0
 5595 2984 2820C3E5 		strb	r2, [r3, #40]
 952:../reversi8_2019.c **** 	tableros_resueltos[3][5][1] = 0;
 5596              		.loc 1 952 0
 5597 2988 10301BE5 		ldr	r3, [fp, #-16]
 5598 298c C03083E2 		add	r3, r3, #192
 5599 2990 0020A0E3 		mov	r2, #0
 5600 2994 2920C3E5 		strb	r2, [r3, #41]
 953:../reversi8_2019.c **** 	tableros_resueltos[3][5][2] = 0;
 5601              		.loc 1 953 0
 5602 2998 10301BE5 		ldr	r3, [fp, #-16]
 5603 299c C03083E2 		add	r3, r3, #192
 5604 29a0 0020A0E3 		mov	r2, #0
 5605 29a4 2A20C3E5 		strb	r2, [r3, #42]
 954:../reversi8_2019.c **** 	tableros_resueltos[3][5][3] = 0;
 5606              		.loc 1 954 0
 5607 29a8 10301BE5 		ldr	r3, [fp, #-16]
 5608 29ac C03083E2 		add	r3, r3, #192
 5609 29b0 0020A0E3 		mov	r2, #0
 5610 29b4 2B20C3E5 		strb	r2, [r3, #43]
 955:../reversi8_2019.c **** 	tableros_resueltos[3][5][4] = 0;
 5611              		.loc 1 955 0
 5612 29b8 10301BE5 		ldr	r3, [fp, #-16]
 5613 29bc C03083E2 		add	r3, r3, #192
 5614 29c0 0020A0E3 		mov	r2, #0
 5615 29c4 2C20C3E5 		strb	r2, [r3, #44]
 956:../reversi8_2019.c **** 	tableros_resueltos[3][5][5] = 0;
 5616              		.loc 1 956 0
 5617 29c8 10301BE5 		ldr	r3, [fp, #-16]
 5618 29cc C03083E2 		add	r3, r3, #192
 5619 29d0 0020A0E3 		mov	r2, #0
 5620 29d4 2D20C3E5 		strb	r2, [r3, #45]
 957:../reversi8_2019.c **** 	tableros_resueltos[3][5][6] = 0;
 5621              		.loc 1 957 0
 5622 29d8 10301BE5 		ldr	r3, [fp, #-16]
 5623 29dc C03083E2 		add	r3, r3, #192
 5624 29e0 0020A0E3 		mov	r2, #0
 5625 29e4 2E20C3E5 		strb	r2, [r3, #46]
 958:../reversi8_2019.c **** 	tableros_resueltos[3][5][7] = 0;
 5626              		.loc 1 958 0
 5627 29e8 10301BE5 		ldr	r3, [fp, #-16]
 5628 29ec C03083E2 		add	r3, r3, #192
 5629 29f0 0020A0E3 		mov	r2, #0
 5630 29f4 2F20C3E5 		strb	r2, [r3, #47]
 959:../reversi8_2019.c **** 
 960:../reversi8_2019.c **** 	tableros_resueltos[3][6][0] = 0;
 5631              		.loc 1 960 0
 5632 29f8 10301BE5 		ldr	r3, [fp, #-16]
 5633 29fc C03083E2 		add	r3, r3, #192
 5634 2a00 0020A0E3 		mov	r2, #0
 5635 2a04 3020C3E5 		strb	r2, [r3, #48]
 961:../reversi8_2019.c **** 	tableros_resueltos[3][6][1] = 0;
 5636              		.loc 1 961 0
 5637 2a08 10301BE5 		ldr	r3, [fp, #-16]
 5638 2a0c C03083E2 		add	r3, r3, #192
 5639 2a10 0020A0E3 		mov	r2, #0
 5640 2a14 3120C3E5 		strb	r2, [r3, #49]
 962:../reversi8_2019.c **** 	tableros_resueltos[3][6][2] = 0;
 5641              		.loc 1 962 0
 5642 2a18 10301BE5 		ldr	r3, [fp, #-16]
 5643 2a1c C03083E2 		add	r3, r3, #192
 5644 2a20 0020A0E3 		mov	r2, #0
 5645 2a24 3220C3E5 		strb	r2, [r3, #50]
 963:../reversi8_2019.c **** 	tableros_resueltos[3][6][3] = 0;
 5646              		.loc 1 963 0
 5647 2a28 10301BE5 		ldr	r3, [fp, #-16]
 5648 2a2c C03083E2 		add	r3, r3, #192
 5649 2a30 0020A0E3 		mov	r2, #0
 5650 2a34 3320C3E5 		strb	r2, [r3, #51]
 964:../reversi8_2019.c **** 	tableros_resueltos[3][6][4] = 0;
 5651              		.loc 1 964 0
 5652 2a38 10301BE5 		ldr	r3, [fp, #-16]
 5653 2a3c C03083E2 		add	r3, r3, #192
 5654 2a40 0020A0E3 		mov	r2, #0
 5655 2a44 3420C3E5 		strb	r2, [r3, #52]
 965:../reversi8_2019.c **** 	tableros_resueltos[3][6][5] = 0;
 5656              		.loc 1 965 0
 5657 2a48 10301BE5 		ldr	r3, [fp, #-16]
 5658 2a4c C03083E2 		add	r3, r3, #192
 5659 2a50 0020A0E3 		mov	r2, #0
 5660 2a54 3520C3E5 		strb	r2, [r3, #53]
 966:../reversi8_2019.c **** 	tableros_resueltos[3][6][6] = 0;
 5661              		.loc 1 966 0
 5662 2a58 10301BE5 		ldr	r3, [fp, #-16]
 5663 2a5c C03083E2 		add	r3, r3, #192
 5664 2a60 0020A0E3 		mov	r2, #0
 5665 2a64 3620C3E5 		strb	r2, [r3, #54]
 967:../reversi8_2019.c **** 	tableros_resueltos[3][6][7] = 0;
 5666              		.loc 1 967 0
 5667 2a68 10301BE5 		ldr	r3, [fp, #-16]
 5668 2a6c C03083E2 		add	r3, r3, #192
 5669 2a70 0020A0E3 		mov	r2, #0
 5670 2a74 3720C3E5 		strb	r2, [r3, #55]
 968:../reversi8_2019.c **** 
 969:../reversi8_2019.c **** 	tableros_resueltos[3][7][0] = 0;
 5671              		.loc 1 969 0
 5672 2a78 10301BE5 		ldr	r3, [fp, #-16]
 5673 2a7c C03083E2 		add	r3, r3, #192
 5674 2a80 0020A0E3 		mov	r2, #0
 5675 2a84 3820C3E5 		strb	r2, [r3, #56]
 970:../reversi8_2019.c **** 	tableros_resueltos[3][7][1] = 0;
 5676              		.loc 1 970 0
 5677 2a88 10301BE5 		ldr	r3, [fp, #-16]
 5678 2a8c C03083E2 		add	r3, r3, #192
 5679 2a90 0020A0E3 		mov	r2, #0
 5680 2a94 3920C3E5 		strb	r2, [r3, #57]
 971:../reversi8_2019.c **** 	tableros_resueltos[3][7][2] = 0;
 5681              		.loc 1 971 0
 5682 2a98 10301BE5 		ldr	r3, [fp, #-16]
 5683 2a9c C03083E2 		add	r3, r3, #192
 5684 2aa0 0020A0E3 		mov	r2, #0
 5685 2aa4 3A20C3E5 		strb	r2, [r3, #58]
 972:../reversi8_2019.c **** 	tableros_resueltos[3][7][3] = 0;
 5686              		.loc 1 972 0
 5687 2aa8 10301BE5 		ldr	r3, [fp, #-16]
 5688 2aac C03083E2 		add	r3, r3, #192
 5689 2ab0 0020A0E3 		mov	r2, #0
 5690 2ab4 3B20C3E5 		strb	r2, [r3, #59]
 973:../reversi8_2019.c **** 	tableros_resueltos[3][7][4] = 0;
 5691              		.loc 1 973 0
 5692 2ab8 10301BE5 		ldr	r3, [fp, #-16]
 5693 2abc C03083E2 		add	r3, r3, #192
 5694 2ac0 0020A0E3 		mov	r2, #0
 5695 2ac4 3C20C3E5 		strb	r2, [r3, #60]
 974:../reversi8_2019.c **** 	tableros_resueltos[3][7][5] = 0;
 5696              		.loc 1 974 0
 5697 2ac8 10301BE5 		ldr	r3, [fp, #-16]
 5698 2acc C03083E2 		add	r3, r3, #192
 5699 2ad0 0020A0E3 		mov	r2, #0
 5700 2ad4 3D20C3E5 		strb	r2, [r3, #61]
 975:../reversi8_2019.c **** 	tableros_resueltos[3][7][6] = 0;
 5701              		.loc 1 975 0
 5702 2ad8 10301BE5 		ldr	r3, [fp, #-16]
 5703 2adc C03083E2 		add	r3, r3, #192
 5704 2ae0 0020A0E3 		mov	r2, #0
 5705 2ae4 3E20C3E5 		strb	r2, [r3, #62]
 976:../reversi8_2019.c **** 	tableros_resueltos[3][7][7] = 0;
 5706              		.loc 1 976 0
 5707 2ae8 10301BE5 		ldr	r3, [fp, #-16]
 5708 2aec C03083E2 		add	r3, r3, #192
 5709 2af0 0020A0E3 		mov	r2, #0
 5710 2af4 3F20C3E5 		strb	r2, [r3, #63]
 977:../reversi8_2019.c **** }
 5711              		.loc 1 977 0
 5712 2af8 0CD04BE2 		sub	sp, fp, #12
 5713 2afc 00689DE8 		ldmfd	sp, {fp, sp, lr}
 5714 2b00 1EFF2FE1 		bx	lr
 5715              		.cfi_endproc
 5716              	.LFE25:
 5718              		.section	.rodata
 5719              		.align	2
 5722              	C.2.5591:
 5723 0050 02       		.byte	2
 5724 0051 03       		.byte	3
 5725 0052 01       		.byte	1
 5726 0053 03       		.byte	3
 5727              		.align	2
 5730              	C.3.5592:
 5731 0054 03       		.byte	3
 5732 0055 02       		.byte	2
 5733 0056 05       		.byte	5
 5734 0057 05       		.byte	5
 5735              		.align	2
 5738              	C.14.5624:
 5739 0058 01       		.byte	1
 5740 0059 02       		.byte	2
 5741 005a 03       		.byte	3
 5742 005b 06       		.byte	6
 5743 005c 06       		.byte	6
 5744 005d 05       		.byte	5
 5745 005e 03       		.byte	3
 5746 005f 02       		.byte	2
 5747              		.align	2
 5750              	C.15.5625:
 5751 0060 04       		.byte	4
 5752 0061 05       		.byte	5
 5753 0062 05       		.byte	5
 5754 0063 06       		.byte	6
 5755 0064 04       		.byte	4
 5756 0065 02       		.byte	2
 5757 0066 01       		.byte	1
 5758 0067 02       		.byte	2
 5759              		.align	2
 5762              	C.16.5626:
 5763 0068 02       		.byte	2
 5764 0069 02       		.byte	2
 5765 006a 02       		.byte	2
 5766 006b 02       		.byte	2
 5767 006c 01       		.byte	1
 5768 006d 01       		.byte	1
 5769 006e 01       		.byte	1
 5770 006f 01       		.byte	1
 5771              		.text
 5772              	.Letext0:
DEFINED SYMBOLS
                            *ABS*:00000000 reversi8_2019.c
C:\Users\Martin\AppData\Local\Temp\cci8vPwT.s:1551   .rodata:00000000 $d
C:\Users\Martin\AppData\Local\Temp\cci8vPwT.s:1554   .rodata:00000000 tabla_valor
C:\Users\Martin\AppData\Local\Temp\cci8vPwT.s:1622   .rodata:00000040 vSF
C:\Users\Martin\AppData\Local\Temp\cci8vPwT.s:1634   .rodata:00000048 vSC
                            *COM*:00000004 accesos_patron_volteo
                            *COM*:00000004 tiempo_patron_volteo
                            *COM*:00000004 tiempo_partida
                            *COM*:00000004 boton
                            *COM*:00000001 estado_button
                            *COM*:00000001 estado_timer_button
                            *COM*:00000001 estado_jugada_botones
                            *COM*:00000004 fila_botones
                            *COM*:00000004 columna_botones
                            *COM*:00000001 estado_jugada_pantalla
                            *COM*:00000004 fila_pantalla
                            *COM*:00000004 columna_pantalla
                            *COM*:00000004 transferencia_completa
                            *COM*:00000040 tablero
                            *COM*:00000040 candidatas
                            *COM*:00000004 blancas
                            *COM*:00000004 negras
C:\Users\Martin\AppData\Local\Temp\cci8vPwT.s:1661   .text:00000000 $a
C:\Users\Martin\AppData\Local\Temp\cci8vPwT.s:1664   .text:00000000 init_table
C:\Users\Martin\AppData\Local\Temp\cci8vPwT.s:1820   .text:000001a8 $d
C:\Users\Martin\AppData\Local\Temp\cci8vPwT.s:1824   .text:000001ac $a
C:\Users\Martin\AppData\Local\Temp\cci8vPwT.s:1827   .text:000001ac asignar_celda
C:\Users\Martin\AppData\Local\Temp\cci8vPwT.s:1865   .text:000001f8 $d
C:\Users\Martin\AppData\Local\Temp\cci8vPwT.s:1869   .text:000001fc $a
C:\Users\Martin\AppData\Local\Temp\cci8vPwT.s:1872   .text:000001fc ficha_valida_juego
C:\Users\Martin\AppData\Local\Temp\cci8vPwT.s:2049   .text:000003e4 $d
C:\Users\Martin\AppData\Local\Temp\cci8vPwT.s:2053   .text:000003e8 $a
C:\Users\Martin\AppData\Local\Temp\cci8vPwT.s:2056   .text:000003e8 posicion_ocupada
C:\Users\Martin\AppData\Local\Temp\cci8vPwT.s:2112   .text:00000464 $d
C:\Users\Martin\AppData\Local\Temp\cci8vPwT.s:2116   .text:00000468 $a
C:\Users\Martin\AppData\Local\Temp\cci8vPwT.s:2119   .text:00000468 obtener_ficha_celda
C:\Users\Martin\AppData\Local\Temp\cci8vPwT.s:2155   .text:000004ac $d
C:\Users\Martin\AppData\Local\Temp\cci8vPwT.s:2159   .text:000004b0 $a
C:\Users\Martin\AppData\Local\Temp\cci8vPwT.s:2162   .text:000004b0 ficha_valida
C:\Users\Martin\AppData\Local\Temp\cci8vPwT.s:2235   .text:00000568 $d
C:\Users\Martin\AppData\Local\Temp\cci8vPwT.s:2239   .text:0000056c $a
C:\Users\Martin\AppData\Local\Temp\cci8vPwT.s:2242   .text:0000056c patron_volteo
C:\Users\Martin\AppData\Local\Temp\cci8vPwT.s:2373   .text:000006d8 $d
C:\Users\Martin\AppData\Local\Temp\cci8vPwT.s:2378   .text:000006e0 $a
C:\Users\Martin\AppData\Local\Temp\cci8vPwT.s:2381   .text:000006e0 voltear
C:\Users\Martin\AppData\Local\Temp\cci8vPwT.s:2446   .text:00000770 actualizar_tablero
C:\Users\Martin\AppData\Local\Temp\cci8vPwT.s:2541   .text:00000870 $d
C:\Users\Martin\AppData\Local\Temp\cci8vPwT.s:2546   .text:00000878 $a
C:\Users\Martin\AppData\Local\Temp\cci8vPwT.s:2549   .text:00000878 elegir_mov
C:\Users\Martin\AppData\Local\Temp\cci8vPwT.s:2735   .text:00000a84 $d
C:\Users\Martin\AppData\Local\Temp\cci8vPwT.s:2742   .text:00000a94 $a
C:\Users\Martin\AppData\Local\Temp\cci8vPwT.s:2745   .text:00000a94 contar
C:\Users\Martin\AppData\Local\Temp\cci8vPwT.s:2847   .text:00000b90 actualizar_candidatas
C:\Users\Martin\AppData\Local\Temp\cci8vPwT.s:3101   .text:00000ebc $d
C:\Users\Martin\AppData\Local\Temp\cci8vPwT.s:3105   .text:00000ec0 $a
C:\Users\Martin\AppData\Local\Temp\cci8vPwT.s:3108   .text:00000ec0 reversi8
C:\Users\Martin\AppData\Local\Temp\cci8vPwT.s:3149   .text:00000f08 $d
C:\Users\Martin\AppData\Local\Temp\cci8vPwT.s:3156   .text:00000f18 $a
C:\Users\Martin\AppData\Local\Temp\cci8vPwT.s:3159   .text:00000f18 jugada_usuario
C:\Users\Martin\AppData\Local\Temp\cci8vPwT.s:3233   .text:00000fd4 $d
C:\Users\Martin\AppData\Local\Temp\cci8vPwT.s:3237   .text:00000fd8 $a
C:\Users\Martin\AppData\Local\Temp\cci8vPwT.s:3240   .text:00000fd8 jugada_maquina
C:\Users\Martin\AppData\Local\Temp\cci8vPwT.s:3317   .text:00001094 $d
C:\Users\Martin\AppData\Local\Temp\cci8vPwT.s:3321   .text:00001098 $a
C:\Users\Martin\AppData\Local\Temp\cci8vPwT.s:3324   .text:00001098 jugar
C:\Users\Martin\AppData\Local\Temp\cci8vPwT.s:3446   .text:000011c8 existe_jugada
C:\Users\Martin\AppData\Local\Temp\cci8vPwT.s:4199   .text:00001964 partida_terminada
C:\Users\Martin\AppData\Local\Temp\cci8vPwT.s:3435   .text:000011b4 $d
C:\Users\Martin\AppData\Local\Temp\cci8vPwT.s:3443   .text:000011c8 $a
C:\Users\Martin\AppData\Local\Temp\cci8vPwT.s:3521   .text:00001264 analisis_tiempos
C:\Users\Martin\AppData\Local\Temp\cci8vPwT.s:3741   .text:000014d0 $d
C:\Users\Martin\AppData\Local\Temp\cci8vPwT.s:3747   .text:000014dc $a
C:\Users\Martin\AppData\Local\Temp\cci8vPwT.s:3750   .text:000014dc hay_eventos_encolados
C:\Users\Martin\AppData\Local\Temp\cci8vPwT.s:3781   .text:00001500 dormir_procesador
C:\Users\Martin\AppData\Local\Temp\cci8vPwT.s:3808   .text:00001518 reversi_main
C:\Users\Martin\AppData\Local\Temp\cci8vPwT.s:3922   .text:0000161c $d
C:\Users\Martin\AppData\Local\Temp\cci8vPwT.s:3927   .text:00001620 $a
C:\Users\Martin\AppData\Local\Temp\cci8vPwT.s:3930   .text:00001620 test_patron_volteo
C:\Users\Martin\AppData\Local\Temp\cci8vPwT.s:4188   .text:00001950 $d
C:\Users\Martin\AppData\Local\Temp\cci8vPwT.s:5738   .rodata:00000058 C.14.5624
C:\Users\Martin\AppData\Local\Temp\cci8vPwT.s:5750   .rodata:00000060 C.15.5625
C:\Users\Martin\AppData\Local\Temp\cci8vPwT.s:5762   .rodata:00000068 C.16.5626
C:\Users\Martin\AppData\Local\Temp\cci8vPwT.s:4196   .text:00001964 $a
C:\Users\Martin\AppData\Local\Temp\cci8vPwT.s:4285   .text:00001a2c $d
C:\Users\Martin\AppData\Local\Temp\cci8vPwT.s:4289   .text:00001a30 $a
C:\Users\Martin\AppData\Local\Temp\cci8vPwT.s:4292   .text:00001a30 test
C:\Users\Martin\AppData\Local\Temp\cci8vPwT.s:4476   .text:00001be4 obtener_tableros_resueltos
C:\Users\Martin\AppData\Local\Temp\cci8vPwT.s:4389   .text:00001b18 tableros_iguales
C:\Users\Martin\AppData\Local\Temp\cci8vPwT.s:4378   .text:00001b04 $d
C:\Users\Martin\AppData\Local\Temp\cci8vPwT.s:5722   .rodata:00000050 C.2.5591
C:\Users\Martin\AppData\Local\Temp\cci8vPwT.s:5730   .rodata:00000054 C.3.5592
C:\Users\Martin\AppData\Local\Temp\cci8vPwT.s:4386   .text:00001b18 $a
                     .debug_frame:00000010 $d

UNDEFINED SYMBOLS
timer2_leer
init_cola
push_debug
evento_pantalla_producido
actualizar_tablero_pantalla
mostrar_profiling
timer2_inicializar
timer2_empezar
timer2_parar
Delay
patron_volteo_arm_c
patron_volteo_arm_arm
hayEventos
tratar_evento
latido_encender
actualizar_tiempo
button_ev_tick1
realizar_trabajo_encolado
memset
